ARM GAS  /tmp/cc1hPgon.s 			page 1


   1              		.syntax unified
   2              		.cpu cortex-m3
   3              		.fpu softvfp
   4              		.eabi_attribute 20, 1
   5              		.eabi_attribute 21, 1
   6              		.eabi_attribute 23, 3
   7              		.eabi_attribute 24, 1
   8              		.eabi_attribute 25, 1
   9              		.eabi_attribute 26, 1
  10              		.eabi_attribute 30, 1
  11              		.eabi_attribute 34, 1
  12              		.eabi_attribute 18, 4
  13              		.thumb
  14              		.syntax unified
  15              		.file	"main.c"
  16              		.text
  17              	.Ltext0:
  18              		.cfi_sections	.debug_frame
  19              		.section	.text.Delay,"ax",%progbits
  20              		.align	2
  21              		.global	Delay
  22              		.thumb
  23              		.thumb_func
  25              	Delay:
  26              	.LFB64:
  27              		.file 1 "./System/Src/main.c"
   1:./System/Src/main.c **** /**
   2:./System/Src/main.c ****   ******************************************************************************
   3:./System/Src/main.c ****   * @file    Templates/Src/main.c 
   4:./System/Src/main.c ****   * @author  MCD Application Team
   5:./System/Src/main.c ****   * @version V1.5.0
   6:./System/Src/main.c ****   * @date    14-April-2017
   7:./System/Src/main.c ****   * @brief   Main program body
   8:./System/Src/main.c ****   ******************************************************************************
   9:./System/Src/main.c ****   * @attention
  10:./System/Src/main.c ****   *
  11:./System/Src/main.c ****   * <h2><center>&copy; COPYRIGHT(c) 2016 STMicroelectronics</center></h2>
  12:./System/Src/main.c ****   *
  13:./System/Src/main.c ****   * Redistribution and use in source and binary forms, with or without modification,
  14:./System/Src/main.c ****   * are permitted provided that the following conditions are met:
  15:./System/Src/main.c ****   *   1. Redistributions of source code must retain the above copyright notice,
  16:./System/Src/main.c ****   *      this list of conditions and the following disclaimer.
  17:./System/Src/main.c ****   *   2. Redistributions in binary form must reproduce the above copyright notice,
  18:./System/Src/main.c ****   *      this list of conditions and the following disclaimer in the documentation
  19:./System/Src/main.c ****   *      and/or other materials provided with the distribution.
  20:./System/Src/main.c ****   *   3. Neither the name of STMicroelectronics nor the names of its contributors
  21:./System/Src/main.c ****   *      may be used to endorse or promote products derived from this software
  22:./System/Src/main.c ****   *      without specific prior written permission.
  23:./System/Src/main.c ****   *
  24:./System/Src/main.c ****   * THIS SOFTWARE IS PROVIDED BY THE COPYRIGHT HOLDERS AND CONTRIBUTORS "AS IS"
  25:./System/Src/main.c ****   * AND ANY EXPRESS OR IMPLIED WARRANTIES, INCLUDING, BUT NOT LIMITED TO, THE
  26:./System/Src/main.c ****   * IMPLIED WARRANTIES OF MERCHANTABILITY AND FITNESS FOR A PARTICULAR PURPOSE ARE
  27:./System/Src/main.c ****   * DISCLAIMED. IN NO EVENT SHALL THE COPYRIGHT HOLDER OR CONTRIBUTORS BE LIABLE
  28:./System/Src/main.c ****   * FOR ANY DIRECT, INDIRECT, INCIDENTAL, SPECIAL, EXEMPLARY, OR CONSEQUENTIAL
  29:./System/Src/main.c ****   * DAMAGES (INCLUDING, BUT NOT LIMITED TO, PROCUREMENT OF SUBSTITUTE GOODS OR
  30:./System/Src/main.c ****   * SERVICES; LOSS OF USE, DATA, OR PROFITS; OR BUSINESS INTERRUPTION) HOWEVER
  31:./System/Src/main.c ****   * CAUSED AND ON ANY THEORY OF LIABILITY, WHETHER IN CONTRACT, STRICT LIABILITY,
ARM GAS  /tmp/cc1hPgon.s 			page 2


  32:./System/Src/main.c ****   * OR TORT (INCLUDING NEGLIGENCE OR OTHERWISE) ARISING IN ANY WAY OUT OF THE USE
  33:./System/Src/main.c ****   * OF THIS SOFTWARE, EVEN IF ADVISED OF THE POSSIBILITY OF SUCH DAMAGE.
  34:./System/Src/main.c ****   *
  35:./System/Src/main.c ****   ******************************************************************************
  36:./System/Src/main.c ****   */
  37:./System/Src/main.c **** 
  38:./System/Src/main.c **** /* Includes ------------------------------------------------------------------*/
  39:./System/Src/main.c **** #include "main.h"
  40:./System/Src/main.c **** #include "sys.h"
  41:./System/Src/main.c **** #include "delay.h"
  42:./System/Src/main.c **** #include "usart.h"
  43:./System/Src/main.c **** #include "stm32_hal_legacy.h"
  44:./System/Src/main.c **** 
  45:./System/Src/main.c **** /** @addtogroup STM32F1xx_HAL_Examples
  46:./System/Src/main.c ****   * @{
  47:./System/Src/main.c ****   */
  48:./System/Src/main.c **** 
  49:./System/Src/main.c **** /** @addtogroup Templates
  50:./System/Src/main.c ****   * @{
  51:./System/Src/main.c ****   */
  52:./System/Src/main.c **** 
  53:./System/Src/main.c **** /* Private typedef -----------------------------------------------------------*/
  54:./System/Src/main.c **** /* Private define ------------------------------------------------------------*/
  55:./System/Src/main.c **** /* Private macro -------------------------------------------------------------*/
  56:./System/Src/main.c **** /* Private variables ---------------------------------------------------------*/
  57:./System/Src/main.c **** /* Private function prototypes -----------------------------------------------*/
  58:./System/Src/main.c **** void SystemClock_Config(void);
  59:./System/Src/main.c **** void Delay(__IO uint32_t nCount);
  60:./System/Src/main.c **** 
  61:./System/Src/main.c **** void Delay(__IO uint32_t nCount)
  62:./System/Src/main.c **** {
  28              		.loc 1 62 0
  29              		.cfi_startproc
  30              		@ args = 0, pretend = 0, frame = 8
  31              		@ frame_needed = 0, uses_anonymous_args = 0
  32              		@ link register save eliminated.
  33              	.LVL0:
  34 0000 82B0     		sub	sp, sp, #8
  35              	.LCFI0:
  36              		.cfi_def_cfa_offset 8
  37 0002 0190     		str	r0, [sp, #4]
  38              	.L2:
  63:./System/Src/main.c ****   while(nCount--){}
  39              		.loc 1 63 0 discriminator 1
  40 0004 019B     		ldr	r3, [sp, #4]
  41 0006 5A1E     		subs	r2, r3, #1
  42 0008 0192     		str	r2, [sp, #4]
  43 000a 002B     		cmp	r3, #0
  44 000c FAD1     		bne	.L2
  64:./System/Src/main.c **** }
  45              		.loc 1 64 0
  46 000e 02B0     		add	sp, sp, #8
  47              	.LCFI1:
  48              		.cfi_def_cfa_offset 0
  49              		@ sp needed
  50 0010 7047     		bx	lr
  51              		.cfi_endproc
ARM GAS  /tmp/cc1hPgon.s 			page 3


  52              	.LFE64:
  54 0012 00BF     		.section	.text.main,"ax",%progbits
  55              		.align	2
  56              		.global	main
  57              		.thumb
  58              		.thumb_func
  60              	main:
  61              	.LFB65:
  65:./System/Src/main.c **** 
  66:./System/Src/main.c **** /* Private functions ---------------------------------------------------------*/
  67:./System/Src/main.c **** 
  68:./System/Src/main.c **** /**
  69:./System/Src/main.c ****   * @brief  Main program
  70:./System/Src/main.c ****   * @param  None
  71:./System/Src/main.c ****   * @retval None
  72:./System/Src/main.c ****   */
  73:./System/Src/main.c **** int main(void)
  74:./System/Src/main.c **** {
  62              		.loc 1 74 0
  63              		.cfi_startproc
  64              		@ args = 0, pretend = 0, frame = 24
  65              		@ frame_needed = 0, uses_anonymous_args = 0
  66 0000 30B5     		push	{r4, r5, lr}
  67              	.LCFI2:
  68              		.cfi_def_cfa_offset 12
  69              		.cfi_offset 4, -12
  70              		.cfi_offset 5, -8
  71              		.cfi_offset 14, -4
  72 0002 87B0     		sub	sp, sp, #28
  73              	.LCFI3:
  74              		.cfi_def_cfa_offset 40
  75:./System/Src/main.c **** 
  76:./System/Src/main.c ****   /* STM32F103xB HAL library initialization:
  77:./System/Src/main.c ****        - Configure the Flash prefetch
  78:./System/Src/main.c ****        - Systick timer is configured by default as source of time base, but user 
  79:./System/Src/main.c ****          can eventually implement his proper time base source (a general purpose 
  80:./System/Src/main.c ****          timer for example or other time source), keeping in mind that Time base 
  81:./System/Src/main.c ****          duration should be kept 1ms since PPP_TIMEOUT_VALUEs are defined and 
  82:./System/Src/main.c ****          handled in milliseconds basis.
  83:./System/Src/main.c ****        - Set NVIC Group Priority to 4
  84:./System/Src/main.c ****        - Low Level Initialization
  85:./System/Src/main.c ****      */
  86:./System/Src/main.c ****   //HAL_Init();
  87:./System/Src/main.c **** 
  88:./System/Src/main.c ****   /* Configure the system clock to 64 MHz */
  89:./System/Src/main.c ****   //SystemClock_Config();
  90:./System/Src/main.c **** 
  91:./System/Src/main.c **** 
  92:./System/Src/main.c ****   /* Add your application code here
  93:./System/Src/main.c ****      */
  94:./System/Src/main.c ****  
  95:./System/Src/main.c **** 	GPIO_InitTypeDef GPIO_Initure;
  96:./System/Src/main.c ****      
  97:./System/Src/main.c ****     HAL_Init();                    	 			//初始化HAL库    
  75              		.loc 1 97 0
  76 0004 FFF7FEFF 		bl	HAL_Init
  77              	.LVL1:
ARM GAS  /tmp/cc1hPgon.s 			page 4


  98:./System/Src/main.c ****     Stm32_Clock_Init(RCC_PLL_MUL9);   			//设置时钟,72M
  78              		.loc 1 98 0
  79 0008 4FF4E010 		mov	r0, #1835008
  80 000c FFF7FEFF 		bl	Stm32_Clock_Init
  81              	.LVL2:
  82              	.LBB2:
  99:./System/Src/main.c **** 
 100:./System/Src/main.c ****     __HAL_RCC_GPIOC_CLK_ENABLE();           	//开启GPIOC时钟
  83              		.loc 1 100 0
  84 0010 154B     		ldr	r3, .L7
  85 0012 9A69     		ldr	r2, [r3, #24]
  86 0014 42F01002 		orr	r2, r2, #16
  87 0018 9A61     		str	r2, [r3, #24]
  88 001a 9B69     		ldr	r3, [r3, #24]
  89 001c 03F01003 		and	r3, r3, #16
  90 0020 0193     		str	r3, [sp, #4]
  91 0022 019B     		ldr	r3, [sp, #4]
  92              	.LBE2:
 101:./System/Src/main.c **** 	
 102:./System/Src/main.c ****     GPIO_Initure.Pin=GPIO_PIN_13; 				//PC8
  93              		.loc 1 102 0
  94 0024 4FF40053 		mov	r3, #8192
  95 0028 0293     		str	r3, [sp, #8]
 103:./System/Src/main.c ****     GPIO_Initure.Mode=GPIO_MODE_OUTPUT_PP;  	//推挽输出
  96              		.loc 1 103 0
  97 002a 0123     		movs	r3, #1
  98 002c 0393     		str	r3, [sp, #12]
 104:./System/Src/main.c ****     GPIO_Initure.Pull=GPIO_PULLUP;          	//上拉
  99              		.loc 1 104 0
 100 002e 0493     		str	r3, [sp, #16]
 105:./System/Src/main.c ****     GPIO_Initure.Speed=GPIO_SPEED_HIGH;    	 	//高速
 101              		.loc 1 105 0
 102 0030 0323     		movs	r3, #3
 103 0032 0593     		str	r3, [sp, #20]
 106:./System/Src/main.c ****     HAL_GPIO_Init(GPIOC,&GPIO_Initure);
 104              		.loc 1 106 0
 105 0034 02A9     		add	r1, sp, #8
 106 0036 0D48     		ldr	r0, .L7+4
 107 0038 FFF7FEFF 		bl	HAL_GPIO_Init
 108              	.LVL3:
 109              	.L5:
 107:./System/Src/main.c **** 
 108:./System/Src/main.c **** 	
 109:./System/Src/main.c **** 	/* Infinite loop */
 110:./System/Src/main.c **** 	while(1)
 111:./System/Src/main.c **** 	{
 112:./System/Src/main.c **** 		HAL_GPIO_WritePin(GPIOC,GPIO_PIN_13,GPIO_PIN_SET);		//PC13置1 			
 110              		.loc 1 112 0 discriminator 1
 111 003c 0B4D     		ldr	r5, .L7+4
 112 003e 0122     		movs	r2, #1
 113 0040 4FF40051 		mov	r1, #8192
 114 0044 2846     		mov	r0, r5
 115 0046 FFF7FEFF 		bl	HAL_GPIO_WritePin
 116              	.LVL4:
 113:./System/Src/main.c **** 		Delay(0x7FFFFF);
 117              		.loc 1 113 0 discriminator 1
 118 004a 094C     		ldr	r4, .L7+8
ARM GAS  /tmp/cc1hPgon.s 			page 5


 119 004c 2046     		mov	r0, r4
 120 004e FFF7FEFF 		bl	Delay
 121              	.LVL5:
 114:./System/Src/main.c **** 		HAL_GPIO_WritePin(GPIOC,GPIO_PIN_13,GPIO_PIN_RESET);	//PC13置0
 122              		.loc 1 114 0 discriminator 1
 123 0052 0022     		movs	r2, #0
 124 0054 4FF40051 		mov	r1, #8192
 125 0058 2846     		mov	r0, r5
 126 005a FFF7FEFF 		bl	HAL_GPIO_WritePin
 127              	.LVL6:
 115:./System/Src/main.c **** 		Delay(0x7FFFFF);
 128              		.loc 1 115 0 discriminator 1
 129 005e 2046     		mov	r0, r4
 130 0060 FFF7FEFF 		bl	Delay
 131              	.LVL7:
 132 0064 EAE7     		b	.L5
 133              	.L8:
 134 0066 00BF     		.align	2
 135              	.L7:
 136 0068 00100240 		.word	1073876992
 137 006c 00100140 		.word	1073811456
 138 0070 FFFF7F00 		.word	8388607
 139              		.cfi_endproc
 140              	.LFE65:
 142              		.section	.text.SystemClock_Config,"ax",%progbits
 143              		.align	2
 144              		.global	SystemClock_Config
 145              		.thumb
 146              		.thumb_func
 148              	SystemClock_Config:
 149              	.LFB66:
 116:./System/Src/main.c **** 	}
 117:./System/Src/main.c **** }
 118:./System/Src/main.c **** 
 119:./System/Src/main.c **** /**
 120:./System/Src/main.c ****   * @brief  System Clock Configuration
 121:./System/Src/main.c ****   *         The system Clock is configured as follow : 
 122:./System/Src/main.c ****   *            System Clock source            = PLL (HSI)
 123:./System/Src/main.c ****   *            SYSCLK(Hz)                     = 64000000
 124:./System/Src/main.c ****   *            HCLK(Hz)                       = 64000000
 125:./System/Src/main.c ****   *            AHB Prescaler                  = 1
 126:./System/Src/main.c ****   *            APB1 Prescaler                 = 2
 127:./System/Src/main.c ****   *            APB2 Prescaler                 = 1
 128:./System/Src/main.c ****   *            PLLMUL                         = 16
 129:./System/Src/main.c ****   *            Flash Latency(WS)              = 2
 130:./System/Src/main.c ****   * @param  None
 131:./System/Src/main.c ****   * @retval None
 132:./System/Src/main.c ****   */
 133:./System/Src/main.c **** void SystemClock_Config(void)
 134:./System/Src/main.c **** {
 150              		.loc 1 134 0
 151              		.cfi_startproc
 152              		@ args = 0, pretend = 0, frame = 64
 153              		@ frame_needed = 0, uses_anonymous_args = 0
 154 0000 00B5     		push	{lr}
 155              	.LCFI4:
 156              		.cfi_def_cfa_offset 4
ARM GAS  /tmp/cc1hPgon.s 			page 6


 157              		.cfi_offset 14, -4
 158 0002 91B0     		sub	sp, sp, #68
 159              	.LCFI5:
 160              		.cfi_def_cfa_offset 72
 135:./System/Src/main.c ****   RCC_ClkInitTypeDef clkinitstruct = {0};
 161              		.loc 1 135 0
 162 0004 0021     		movs	r1, #0
 163 0006 0B91     		str	r1, [sp, #44]
 164 0008 0C91     		str	r1, [sp, #48]
 165 000a 0D91     		str	r1, [sp, #52]
 166 000c 0E91     		str	r1, [sp, #56]
 167 000e 0F91     		str	r1, [sp, #60]
 136:./System/Src/main.c ****   RCC_OscInitTypeDef oscinitstruct = {0};
 168              		.loc 1 136 0
 169 0010 2822     		movs	r2, #40
 170 0012 01A8     		add	r0, sp, #4
 171 0014 FFF7FEFF 		bl	memset
 172              	.LVL8:
 137:./System/Src/main.c ****   
 138:./System/Src/main.c ****   /* Configure PLL ------------------------------------------------------*/
 139:./System/Src/main.c ****   /* PLL configuration: PLLCLK = (HSI / 2) * PLLMUL = (8 / 2) * 16 = 64 MHz */
 140:./System/Src/main.c ****   /* PREDIV1 configuration: PREDIV1CLK = PLLCLK / HSEPredivValue = 64 / 1 = 64 MHz */
 141:./System/Src/main.c ****   /* Enable HSI and activate PLL with HSi_DIV2 as source */
 142:./System/Src/main.c ****   oscinitstruct.OscillatorType  = RCC_OSCILLATORTYPE_HSI;
 173              		.loc 1 142 0
 174 0018 0223     		movs	r3, #2
 175 001a 0193     		str	r3, [sp, #4]
 143:./System/Src/main.c ****   oscinitstruct.HSEState        = RCC_HSE_OFF;
 144:./System/Src/main.c ****   oscinitstruct.LSEState        = RCC_LSE_OFF;
 145:./System/Src/main.c ****   oscinitstruct.HSIState        = RCC_HSI_ON;
 176              		.loc 1 145 0
 177 001c 0122     		movs	r2, #1
 178 001e 0592     		str	r2, [sp, #20]
 146:./System/Src/main.c ****   oscinitstruct.HSICalibrationValue = RCC_HSICALIBRATION_DEFAULT;
 179              		.loc 1 146 0
 180 0020 1022     		movs	r2, #16
 181 0022 0692     		str	r2, [sp, #24]
 147:./System/Src/main.c ****   oscinitstruct.HSEPredivValue    = RCC_HSE_PREDIV_DIV1;
 148:./System/Src/main.c ****   oscinitstruct.PLL.PLLState    = RCC_PLL_ON;
 182              		.loc 1 148 0
 183 0024 0893     		str	r3, [sp, #32]
 149:./System/Src/main.c ****   oscinitstruct.PLL.PLLSource   = RCC_PLLSOURCE_HSI_DIV2;
 150:./System/Src/main.c ****   oscinitstruct.PLL.PLLMUL      = RCC_PLL_MUL16;
 184              		.loc 1 150 0
 185 0026 4FF46013 		mov	r3, #3670016
 186 002a 0A93     		str	r3, [sp, #40]
 151:./System/Src/main.c ****   if (HAL_RCC_OscConfig(&oscinitstruct)!= HAL_OK)
 187              		.loc 1 151 0
 188 002c 01A8     		add	r0, sp, #4
 189 002e FFF7FEFF 		bl	HAL_RCC_OscConfig
 190              	.LVL9:
 191 0032 00B1     		cbz	r0, .L10
 192              	.L11:
 193 0034 FEE7     		b	.L11
 194              	.L10:
 152:./System/Src/main.c ****   {
 153:./System/Src/main.c ****     /* Initialization Error */
ARM GAS  /tmp/cc1hPgon.s 			page 7


 154:./System/Src/main.c ****     while(1); 
 155:./System/Src/main.c ****   }
 156:./System/Src/main.c **** 
 157:./System/Src/main.c ****   /* Select PLL as system clock source and configure the HCLK, PCLK1 and PCLK2 
 158:./System/Src/main.c ****      clocks dividers */
 159:./System/Src/main.c ****   clkinitstruct.ClockType = (RCC_CLOCKTYPE_SYSCLK | RCC_CLOCKTYPE_HCLK | RCC_CLOCKTYPE_PCLK1 | RCC_
 195              		.loc 1 159 0
 196 0036 0F23     		movs	r3, #15
 197 0038 0B93     		str	r3, [sp, #44]
 160:./System/Src/main.c ****   clkinitstruct.SYSCLKSource = RCC_SYSCLKSOURCE_PLLCLK;
 198              		.loc 1 160 0
 199 003a 0221     		movs	r1, #2
 200 003c 0C91     		str	r1, [sp, #48]
 161:./System/Src/main.c ****   clkinitstruct.AHBCLKDivider = RCC_SYSCLK_DIV1;
 201              		.loc 1 161 0
 202 003e 0023     		movs	r3, #0
 203 0040 0D93     		str	r3, [sp, #52]
 162:./System/Src/main.c ****   clkinitstruct.APB2CLKDivider = RCC_HCLK_DIV1;
 204              		.loc 1 162 0
 205 0042 0F93     		str	r3, [sp, #60]
 163:./System/Src/main.c ****   clkinitstruct.APB1CLKDivider = RCC_HCLK_DIV2;  
 206              		.loc 1 163 0
 207 0044 4FF48063 		mov	r3, #1024
 208 0048 0E93     		str	r3, [sp, #56]
 164:./System/Src/main.c ****   if (HAL_RCC_ClockConfig(&clkinitstruct, FLASH_LATENCY_2)!= HAL_OK)
 209              		.loc 1 164 0
 210 004a 0BA8     		add	r0, sp, #44
 211 004c FFF7FEFF 		bl	HAL_RCC_ClockConfig
 212              	.LVL10:
 213 0050 00B1     		cbz	r0, .L9
 214              	.L13:
 215 0052 FEE7     		b	.L13
 216              	.L9:
 165:./System/Src/main.c ****   {
 166:./System/Src/main.c ****     /* Initialization Error */
 167:./System/Src/main.c ****     while(1); 
 168:./System/Src/main.c ****   }
 169:./System/Src/main.c **** }
 217              		.loc 1 169 0
 218 0054 11B0     		add	sp, sp, #68
 219              	.LCFI6:
 220              		.cfi_def_cfa_offset 4
 221              		@ sp needed
 222 0056 5DF804FB 		ldr	pc, [sp], #4
 223              		.cfi_endproc
 224              	.LFE66:
 226 005a 00BF     		.text
 227              	.Letext0:
 228              		.file 2 "/opt/toolchain/gcc-arm-none-eabi-5_4-2016q3/arm-none-eabi/include/machine/_default_types.
 229              		.file 3 "/opt/toolchain/gcc-arm-none-eabi-5_4-2016q3/arm-none-eabi/include/sys/_stdint.h"
 230              		.file 4 "Drivers/CMSIS/Device/Inc/stm32f103xb.h"
 231              		.file 5 "Drivers/STM32F1xx_HAL_Driver/Inc/stm32f1xx_hal_rcc.h"
 232              		.file 6 "Drivers/STM32F1xx_HAL_Driver/Inc/stm32f1xx_hal_rcc_ex.h"
 233              		.file 7 "Drivers/STM32F1xx_HAL_Driver/Inc/stm32f1xx_hal_gpio.h"
 234              		.file 8 "Drivers/STM32F1xx_HAL_Driver/Inc/stm32f1xx_hal_def.h"
 235              		.file 9 "Drivers/STM32F1xx_HAL_Driver/Inc/stm32f1xx_hal.h"
 236              		.file 10 "System/Inc/sys.h"
ARM GAS  /tmp/cc1hPgon.s 			page 8


 237              		.file 11 "Drivers/CMSIS/Inc/core_cm3.h"
ARM GAS  /tmp/cc1hPgon.s 			page 9

