ARM GAS  /tmp/cckOGAIs.s 			page 1


   1              		.syntax unified
   2              		.cpu cortex-m3
   3              		.fpu softvfp
   4              		.eabi_attribute 20, 1
   5              		.eabi_attribute 21, 1
   6              		.eabi_attribute 23, 3
   7              		.eabi_attribute 24, 1
   8              		.eabi_attribute 25, 1
   9              		.eabi_attribute 26, 1
  10              		.eabi_attribute 30, 1
  11              		.eabi_attribute 34, 1
  12              		.eabi_attribute 18, 4
  13              		.thumb
  14              		.syntax unified
  15              		.file	"stm32f1xx_it.c"
  16              		.text
  17              	.Ltext0:
  18              		.cfi_sections	.debug_frame
  19              		.section	.text.NMI_Handler,"ax",%progbits
  20              		.align	2
  21              		.global	NMI_Handler
  22              		.thumb
  23              		.thumb_func
  25              	NMI_Handler:
  26              	.LFB64:
  27              		.file 1 "./System/Src/stm32f1xx_it.c"
   1:./System/Src/stm32f1xx_it.c **** /**
   2:./System/Src/stm32f1xx_it.c ****   ******************************************************************************
   3:./System/Src/stm32f1xx_it.c ****   * @file    Templates/Src/stm32f1xx.c
   4:./System/Src/stm32f1xx_it.c ****   * @author  MCD Application Team
   5:./System/Src/stm32f1xx_it.c ****   * @version V1.5.0
   6:./System/Src/stm32f1xx_it.c ****   * @date    14-April-2017
   7:./System/Src/stm32f1xx_it.c ****   * @brief   Main Interrupt Service Routines.
   8:./System/Src/stm32f1xx_it.c ****   *          This file provides template for all exceptions handler and 
   9:./System/Src/stm32f1xx_it.c ****   *          peripherals interrupt service routine.
  10:./System/Src/stm32f1xx_it.c ****   ******************************************************************************
  11:./System/Src/stm32f1xx_it.c ****   * @attention
  12:./System/Src/stm32f1xx_it.c ****   *
  13:./System/Src/stm32f1xx_it.c ****   * <h2><center>&copy; COPYRIGHT(c) 2016 STMicroelectronics</center></h2>
  14:./System/Src/stm32f1xx_it.c ****   *
  15:./System/Src/stm32f1xx_it.c ****   * Redistribution and use in source and binary forms, with or without modification,
  16:./System/Src/stm32f1xx_it.c ****   * are permitted provided that the following conditions are met:
  17:./System/Src/stm32f1xx_it.c ****   *   1. Redistributions of source code must retain the above copyright notice,
  18:./System/Src/stm32f1xx_it.c ****   *      this list of conditions and the following disclaimer.
  19:./System/Src/stm32f1xx_it.c ****   *   2. Redistributions in binary form must reproduce the above copyright notice,
  20:./System/Src/stm32f1xx_it.c ****   *      this list of conditions and the following disclaimer in the documentation
  21:./System/Src/stm32f1xx_it.c ****   *      and/or other materials provided with the distribution.
  22:./System/Src/stm32f1xx_it.c ****   *   3. Neither the name of STMicroelectronics nor the names of its contributors
  23:./System/Src/stm32f1xx_it.c ****   *      may be used to endorse or promote products derived from this software
  24:./System/Src/stm32f1xx_it.c ****   *      without specific prior written permission.
  25:./System/Src/stm32f1xx_it.c ****   *
  26:./System/Src/stm32f1xx_it.c ****   * THIS SOFTWARE IS PROVIDED BY THE COPYRIGHT HOLDERS AND CONTRIBUTORS "AS IS"
  27:./System/Src/stm32f1xx_it.c ****   * AND ANY EXPRESS OR IMPLIED WARRANTIES, INCLUDING, BUT NOT LIMITED TO, THE
  28:./System/Src/stm32f1xx_it.c ****   * IMPLIED WARRANTIES OF MERCHANTABILITY AND FITNESS FOR A PARTICULAR PURPOSE ARE
  29:./System/Src/stm32f1xx_it.c ****   * DISCLAIMED. IN NO EVENT SHALL THE COPYRIGHT HOLDER OR CONTRIBUTORS BE LIABLE
  30:./System/Src/stm32f1xx_it.c ****   * FOR ANY DIRECT, INDIRECT, INCIDENTAL, SPECIAL, EXEMPLARY, OR CONSEQUENTIAL
  31:./System/Src/stm32f1xx_it.c ****   * DAMAGES (INCLUDING, BUT NOT LIMITED TO, PROCUREMENT OF SUBSTITUTE GOODS OR
ARM GAS  /tmp/cckOGAIs.s 			page 2


  32:./System/Src/stm32f1xx_it.c ****   * SERVICES; LOSS OF USE, DATA, OR PROFITS; OR BUSINESS INTERRUPTION) HOWEVER
  33:./System/Src/stm32f1xx_it.c ****   * CAUSED AND ON ANY THEORY OF LIABILITY, WHETHER IN CONTRACT, STRICT LIABILITY,
  34:./System/Src/stm32f1xx_it.c ****   * OR TORT (INCLUDING NEGLIGENCE OR OTHERWISE) ARISING IN ANY WAY OUT OF THE USE
  35:./System/Src/stm32f1xx_it.c ****   * OF THIS SOFTWARE, EVEN IF ADVISED OF THE POSSIBILITY OF SUCH DAMAGE.
  36:./System/Src/stm32f1xx_it.c ****   *
  37:./System/Src/stm32f1xx_it.c ****   ******************************************************************************
  38:./System/Src/stm32f1xx_it.c ****   */
  39:./System/Src/stm32f1xx_it.c **** 
  40:./System/Src/stm32f1xx_it.c **** /* Includes ------------------------------------------------------------------*/
  41:./System/Src/stm32f1xx_it.c **** #include "main.h"
  42:./System/Src/stm32f1xx_it.c **** #include "stm32f1xx_it.h"
  43:./System/Src/stm32f1xx_it.c ****    
  44:./System/Src/stm32f1xx_it.c **** /** @addtogroup STM32F1xx_HAL_Examples
  45:./System/Src/stm32f1xx_it.c ****   * @{
  46:./System/Src/stm32f1xx_it.c ****   */
  47:./System/Src/stm32f1xx_it.c **** 
  48:./System/Src/stm32f1xx_it.c **** /** @addtogroup Templates
  49:./System/Src/stm32f1xx_it.c ****   * @{
  50:./System/Src/stm32f1xx_it.c ****   */
  51:./System/Src/stm32f1xx_it.c **** 
  52:./System/Src/stm32f1xx_it.c **** /* Private typedef -----------------------------------------------------------*/
  53:./System/Src/stm32f1xx_it.c **** /* Private define ------------------------------------------------------------*/
  54:./System/Src/stm32f1xx_it.c **** /* Private macro -------------------------------------------------------------*/
  55:./System/Src/stm32f1xx_it.c **** /* Private variables ---------------------------------------------------------*/
  56:./System/Src/stm32f1xx_it.c **** 
  57:./System/Src/stm32f1xx_it.c **** /* Private function prototypes -----------------------------------------------*/
  58:./System/Src/stm32f1xx_it.c **** /* Private functions ---------------------------------------------------------*/
  59:./System/Src/stm32f1xx_it.c **** 
  60:./System/Src/stm32f1xx_it.c **** /******************************************************************************/
  61:./System/Src/stm32f1xx_it.c **** /*            Cortex-M3 Processor Exceptions Handlers                         */
  62:./System/Src/stm32f1xx_it.c **** /******************************************************************************/
  63:./System/Src/stm32f1xx_it.c **** 
  64:./System/Src/stm32f1xx_it.c **** /**
  65:./System/Src/stm32f1xx_it.c ****   * @brief   This function handles NMI exception.
  66:./System/Src/stm32f1xx_it.c ****   * @param  None
  67:./System/Src/stm32f1xx_it.c ****   * @retval None
  68:./System/Src/stm32f1xx_it.c ****   */
  69:./System/Src/stm32f1xx_it.c **** void NMI_Handler(void)
  70:./System/Src/stm32f1xx_it.c **** {
  28              		.loc 1 70 0
  29              		.cfi_startproc
  30              		@ args = 0, pretend = 0, frame = 0
  31              		@ frame_needed = 0, uses_anonymous_args = 0
  32              		@ link register save eliminated.
  33 0000 7047     		bx	lr
  34              		.cfi_endproc
  35              	.LFE64:
  37 0002 00BF     		.section	.text.HardFault_Handler,"ax",%progbits
  38              		.align	2
  39              		.global	HardFault_Handler
  40              		.thumb
  41              		.thumb_func
  43              	HardFault_Handler:
  44              	.LFB65:
  71:./System/Src/stm32f1xx_it.c **** }
  72:./System/Src/stm32f1xx_it.c **** 
  73:./System/Src/stm32f1xx_it.c **** /**
ARM GAS  /tmp/cckOGAIs.s 			page 3


  74:./System/Src/stm32f1xx_it.c ****   * @brief  This function handles Hard Fault exception.
  75:./System/Src/stm32f1xx_it.c ****   * @param  None
  76:./System/Src/stm32f1xx_it.c ****   * @retval None
  77:./System/Src/stm32f1xx_it.c ****   */
  78:./System/Src/stm32f1xx_it.c **** void HardFault_Handler(void)
  79:./System/Src/stm32f1xx_it.c **** {
  45              		.loc 1 79 0
  46              		.cfi_startproc
  47              		@ Volatile: function does not return.
  48              		@ args = 0, pretend = 0, frame = 0
  49              		@ frame_needed = 0, uses_anonymous_args = 0
  50              		@ link register save eliminated.
  51              	.L3:
  52 0000 FEE7     		b	.L3
  53              		.cfi_endproc
  54              	.LFE65:
  56 0002 00BF     		.section	.text.MemManage_Handler,"ax",%progbits
  57              		.align	2
  58              		.global	MemManage_Handler
  59              		.thumb
  60              		.thumb_func
  62              	MemManage_Handler:
  63              	.LFB66:
  80:./System/Src/stm32f1xx_it.c ****   /* Go to infinite loop when Hard Fault exception occurs */
  81:./System/Src/stm32f1xx_it.c ****   while (1)
  82:./System/Src/stm32f1xx_it.c ****   {
  83:./System/Src/stm32f1xx_it.c ****   }
  84:./System/Src/stm32f1xx_it.c **** }
  85:./System/Src/stm32f1xx_it.c **** 
  86:./System/Src/stm32f1xx_it.c **** /**
  87:./System/Src/stm32f1xx_it.c ****   * @brief  This function handles Memory Manage exception.
  88:./System/Src/stm32f1xx_it.c ****   * @param  None
  89:./System/Src/stm32f1xx_it.c ****   * @retval None
  90:./System/Src/stm32f1xx_it.c ****   */
  91:./System/Src/stm32f1xx_it.c **** void MemManage_Handler(void)
  92:./System/Src/stm32f1xx_it.c **** {
  64              		.loc 1 92 0
  65              		.cfi_startproc
  66              		@ Volatile: function does not return.
  67              		@ args = 0, pretend = 0, frame = 0
  68              		@ frame_needed = 0, uses_anonymous_args = 0
  69              		@ link register save eliminated.
  70              	.L5:
  71 0000 FEE7     		b	.L5
  72              		.cfi_endproc
  73              	.LFE66:
  75 0002 00BF     		.section	.text.BusFault_Handler,"ax",%progbits
  76              		.align	2
  77              		.global	BusFault_Handler
  78              		.thumb
  79              		.thumb_func
  81              	BusFault_Handler:
  82              	.LFB67:
  93:./System/Src/stm32f1xx_it.c ****   /* Go to infinite loop when Memory Manage exception occurs */
  94:./System/Src/stm32f1xx_it.c ****   while (1)
  95:./System/Src/stm32f1xx_it.c ****   {
  96:./System/Src/stm32f1xx_it.c ****   }
ARM GAS  /tmp/cckOGAIs.s 			page 4


  97:./System/Src/stm32f1xx_it.c **** }
  98:./System/Src/stm32f1xx_it.c **** 
  99:./System/Src/stm32f1xx_it.c **** /**
 100:./System/Src/stm32f1xx_it.c ****   * @brief  This function handles Bus Fault exception.
 101:./System/Src/stm32f1xx_it.c ****   * @param  None
 102:./System/Src/stm32f1xx_it.c ****   * @retval None
 103:./System/Src/stm32f1xx_it.c ****   */
 104:./System/Src/stm32f1xx_it.c **** void BusFault_Handler(void)
 105:./System/Src/stm32f1xx_it.c **** {
  83              		.loc 1 105 0
  84              		.cfi_startproc
  85              		@ Volatile: function does not return.
  86              		@ args = 0, pretend = 0, frame = 0
  87              		@ frame_needed = 0, uses_anonymous_args = 0
  88              		@ link register save eliminated.
  89              	.L7:
  90 0000 FEE7     		b	.L7
  91              		.cfi_endproc
  92              	.LFE67:
  94 0002 00BF     		.section	.text.UsageFault_Handler,"ax",%progbits
  95              		.align	2
  96              		.global	UsageFault_Handler
  97              		.thumb
  98              		.thumb_func
 100              	UsageFault_Handler:
 101              	.LFB68:
 106:./System/Src/stm32f1xx_it.c ****   /* Go to infinite loop when Bus Fault exception occurs */
 107:./System/Src/stm32f1xx_it.c ****   while (1)
 108:./System/Src/stm32f1xx_it.c ****   {
 109:./System/Src/stm32f1xx_it.c ****   }
 110:./System/Src/stm32f1xx_it.c **** }
 111:./System/Src/stm32f1xx_it.c **** 
 112:./System/Src/stm32f1xx_it.c **** /**
 113:./System/Src/stm32f1xx_it.c ****   * @brief  This function handles Usage Fault exception.
 114:./System/Src/stm32f1xx_it.c ****   * @param  None
 115:./System/Src/stm32f1xx_it.c ****   * @retval None
 116:./System/Src/stm32f1xx_it.c ****   */
 117:./System/Src/stm32f1xx_it.c **** void UsageFault_Handler(void)
 118:./System/Src/stm32f1xx_it.c **** {
 102              		.loc 1 118 0
 103              		.cfi_startproc
 104              		@ Volatile: function does not return.
 105              		@ args = 0, pretend = 0, frame = 0
 106              		@ frame_needed = 0, uses_anonymous_args = 0
 107              		@ link register save eliminated.
 108              	.L9:
 109 0000 FEE7     		b	.L9
 110              		.cfi_endproc
 111              	.LFE68:
 113 0002 00BF     		.section	.text.SVC_Handler,"ax",%progbits
 114              		.align	2
 115              		.global	SVC_Handler
 116              		.thumb
 117              		.thumb_func
 119              	SVC_Handler:
 120              	.LFB69:
 119:./System/Src/stm32f1xx_it.c ****   /* Go to infinite loop when Usage Fault exception occurs */
ARM GAS  /tmp/cckOGAIs.s 			page 5


 120:./System/Src/stm32f1xx_it.c ****   while (1)
 121:./System/Src/stm32f1xx_it.c ****   {
 122:./System/Src/stm32f1xx_it.c ****   }
 123:./System/Src/stm32f1xx_it.c **** }
 124:./System/Src/stm32f1xx_it.c **** 
 125:./System/Src/stm32f1xx_it.c **** /**
 126:./System/Src/stm32f1xx_it.c ****   * @brief  This function handles SVCall exception.
 127:./System/Src/stm32f1xx_it.c ****   * @param  None
 128:./System/Src/stm32f1xx_it.c ****   * @retval None
 129:./System/Src/stm32f1xx_it.c ****   */
 130:./System/Src/stm32f1xx_it.c **** void SVC_Handler(void)
 131:./System/Src/stm32f1xx_it.c **** {
 121              		.loc 1 131 0
 122              		.cfi_startproc
 123              		@ args = 0, pretend = 0, frame = 0
 124              		@ frame_needed = 0, uses_anonymous_args = 0
 125              		@ link register save eliminated.
 126 0000 7047     		bx	lr
 127              		.cfi_endproc
 128              	.LFE69:
 130 0002 00BF     		.section	.text.DebugMon_Handler,"ax",%progbits
 131              		.align	2
 132              		.global	DebugMon_Handler
 133              		.thumb
 134              		.thumb_func
 136              	DebugMon_Handler:
 137              	.LFB70:
 132:./System/Src/stm32f1xx_it.c **** }
 133:./System/Src/stm32f1xx_it.c **** 
 134:./System/Src/stm32f1xx_it.c **** /**
 135:./System/Src/stm32f1xx_it.c ****   * @brief  This function handles Debug Monitor exception.
 136:./System/Src/stm32f1xx_it.c ****   * @param  None
 137:./System/Src/stm32f1xx_it.c ****   * @retval None
 138:./System/Src/stm32f1xx_it.c ****   */
 139:./System/Src/stm32f1xx_it.c **** void DebugMon_Handler(void)
 140:./System/Src/stm32f1xx_it.c **** {
 138              		.loc 1 140 0
 139              		.cfi_startproc
 140              		@ args = 0, pretend = 0, frame = 0
 141              		@ frame_needed = 0, uses_anonymous_args = 0
 142              		@ link register save eliminated.
 143 0000 7047     		bx	lr
 144              		.cfi_endproc
 145              	.LFE70:
 147 0002 00BF     		.section	.text.PendSV_Handler,"ax",%progbits
 148              		.align	2
 149              		.global	PendSV_Handler
 150              		.thumb
 151              		.thumb_func
 153              	PendSV_Handler:
 154              	.LFB71:
 141:./System/Src/stm32f1xx_it.c **** }
 142:./System/Src/stm32f1xx_it.c **** 
 143:./System/Src/stm32f1xx_it.c **** /**
 144:./System/Src/stm32f1xx_it.c ****   * @brief  This function handles PendSVC exception.
 145:./System/Src/stm32f1xx_it.c ****   * @param  None
 146:./System/Src/stm32f1xx_it.c ****   * @retval None
ARM GAS  /tmp/cckOGAIs.s 			page 6


 147:./System/Src/stm32f1xx_it.c ****   */
 148:./System/Src/stm32f1xx_it.c **** void PendSV_Handler(void)
 149:./System/Src/stm32f1xx_it.c **** {
 155              		.loc 1 149 0
 156              		.cfi_startproc
 157              		@ args = 0, pretend = 0, frame = 0
 158              		@ frame_needed = 0, uses_anonymous_args = 0
 159              		@ link register save eliminated.
 160 0000 7047     		bx	lr
 161              		.cfi_endproc
 162              	.LFE71:
 164 0002 00BF     		.section	.text.SysTick_Handler,"ax",%progbits
 165              		.align	2
 166              		.global	SysTick_Handler
 167              		.thumb
 168              		.thumb_func
 170              	SysTick_Handler:
 171              	.LFB72:
 150:./System/Src/stm32f1xx_it.c **** }
 151:./System/Src/stm32f1xx_it.c **** 
 152:./System/Src/stm32f1xx_it.c **** /**
 153:./System/Src/stm32f1xx_it.c ****   * @brief  This function handles SysTick Handler.
 154:./System/Src/stm32f1xx_it.c ****   * @param  None
 155:./System/Src/stm32f1xx_it.c ****   * @retval None
 156:./System/Src/stm32f1xx_it.c ****   */
 157:./System/Src/stm32f1xx_it.c **** void SysTick_Handler(void)
 158:./System/Src/stm32f1xx_it.c **** {
 172              		.loc 1 158 0
 173              		.cfi_startproc
 174              		@ args = 0, pretend = 0, frame = 0
 175              		@ frame_needed = 0, uses_anonymous_args = 0
 176              		.loc 1 158 0
 177 0000 08B5     		push	{r3, lr}
 178              	.LCFI0:
 179              		.cfi_def_cfa_offset 8
 180              		.cfi_offset 3, -8
 181              		.cfi_offset 14, -4
 159:./System/Src/stm32f1xx_it.c ****   HAL_IncTick();
 182              		.loc 1 159 0
 183 0002 FFF7FEFF 		bl	HAL_IncTick
 184              	.LVL0:
 185 0006 08BD     		pop	{r3, pc}
 186              		.cfi_endproc
 187              	.LFE72:
 189              		.text
 190              	.Letext0:
 191              		.file 2 "/opt/toolchain/gcc-arm-none-eabi-5_4-2016q3/arm-none-eabi/include/machine/_default_types.
 192              		.file 3 "/opt/toolchain/gcc-arm-none-eabi-5_4-2016q3/arm-none-eabi/include/sys/_stdint.h"
 193              		.file 4 "Drivers/CMSIS/Inc/core_cm3.h"
 194              		.file 5 "Drivers/STM32F1xx_HAL_Driver/Inc/stm32f1xx_hal.h"
ARM GAS  /tmp/cckOGAIs.s 			page 7

