ARM GAS  /tmp/ccTzASZE.s 			page 1


   1              		.syntax unified
   2              		.cpu cortex-m3
   3              		.fpu softvfp
   4              		.eabi_attribute 20, 1
   5              		.eabi_attribute 21, 1
   6              		.eabi_attribute 23, 3
   7              		.eabi_attribute 24, 1
   8              		.eabi_attribute 25, 1
   9              		.eabi_attribute 26, 1
  10              		.eabi_attribute 30, 1
  11              		.eabi_attribute 34, 1
  12              		.eabi_attribute 18, 4
  13              		.thumb
  14              		.syntax unified
  15              		.file	"stm32f1xx_hal_rtc.c"
  16              		.text
  17              	.Ltext0:
  18              		.cfi_sections	.debug_frame
  19              		.section	.text.RTC_ReadTimeCounter,"ax",%progbits
  20              		.align	2
  21              		.thumb
  22              		.thumb_func
  24              	RTC_ReadTimeCounter:
  25              	.LFB81:
  26              		.file 1 "./Drivers/STM32F1xx_HAL_Driver/Src/stm32f1xx_hal_rtc.c"
   1:./Drivers/STM32F1xx_HAL_Driver/Src/stm32f1xx_hal_rtc.c **** /**
   2:./Drivers/STM32F1xx_HAL_Driver/Src/stm32f1xx_hal_rtc.c ****   ******************************************************************************
   3:./Drivers/STM32F1xx_HAL_Driver/Src/stm32f1xx_hal_rtc.c ****   * @file    stm32f1xx_hal_rtc.c
   4:./Drivers/STM32F1xx_HAL_Driver/Src/stm32f1xx_hal_rtc.c ****   * @author  MCD Application Team
   5:./Drivers/STM32F1xx_HAL_Driver/Src/stm32f1xx_hal_rtc.c ****   * @version V1.1.1
   6:./Drivers/STM32F1xx_HAL_Driver/Src/stm32f1xx_hal_rtc.c ****   * @date    12-May-2017
   7:./Drivers/STM32F1xx_HAL_Driver/Src/stm32f1xx_hal_rtc.c ****   * @brief   RTC HAL module driver.
   8:./Drivers/STM32F1xx_HAL_Driver/Src/stm32f1xx_hal_rtc.c ****   *          This file provides firmware functions to manage the following 
   9:./Drivers/STM32F1xx_HAL_Driver/Src/stm32f1xx_hal_rtc.c ****   *          functionalities of the Real Time Clock (RTC) peripheral:
  10:./Drivers/STM32F1xx_HAL_Driver/Src/stm32f1xx_hal_rtc.c ****   *           + Initialization and de-initialization functions
  11:./Drivers/STM32F1xx_HAL_Driver/Src/stm32f1xx_hal_rtc.c ****   *           + RTC Time and Date functions
  12:./Drivers/STM32F1xx_HAL_Driver/Src/stm32f1xx_hal_rtc.c ****   *           + RTC Alarm functions
  13:./Drivers/STM32F1xx_HAL_Driver/Src/stm32f1xx_hal_rtc.c ****   *           + Peripheral Control functions   
  14:./Drivers/STM32F1xx_HAL_Driver/Src/stm32f1xx_hal_rtc.c ****   *           + Peripheral State functions
  15:./Drivers/STM32F1xx_HAL_Driver/Src/stm32f1xx_hal_rtc.c ****   *         
  16:./Drivers/STM32F1xx_HAL_Driver/Src/stm32f1xx_hal_rtc.c ****   @verbatim
  17:./Drivers/STM32F1xx_HAL_Driver/Src/stm32f1xx_hal_rtc.c ****   ==============================================================================
  18:./Drivers/STM32F1xx_HAL_Driver/Src/stm32f1xx_hal_rtc.c ****                   ##### How to use this driver #####
  19:./Drivers/STM32F1xx_HAL_Driver/Src/stm32f1xx_hal_rtc.c ****   ==================================================================
  20:./Drivers/STM32F1xx_HAL_Driver/Src/stm32f1xx_hal_rtc.c ****   [..] 
  21:./Drivers/STM32F1xx_HAL_Driver/Src/stm32f1xx_hal_rtc.c ****     (+) Enable the RTC domain access (see description in the section above).
  22:./Drivers/STM32F1xx_HAL_Driver/Src/stm32f1xx_hal_rtc.c ****     (+) Configure the RTC Prescaler (Asynchronous prescaler to generate RTC 1Hz time base) 
  23:./Drivers/STM32F1xx_HAL_Driver/Src/stm32f1xx_hal_rtc.c ****         using the HAL_RTC_Init() function.
  24:./Drivers/STM32F1xx_HAL_Driver/Src/stm32f1xx_hal_rtc.c ****   
  25:./Drivers/STM32F1xx_HAL_Driver/Src/stm32f1xx_hal_rtc.c ****   *** Time and Date configuration ***
  26:./Drivers/STM32F1xx_HAL_Driver/Src/stm32f1xx_hal_rtc.c ****   ===================================
  27:./Drivers/STM32F1xx_HAL_Driver/Src/stm32f1xx_hal_rtc.c ****   [..] 
  28:./Drivers/STM32F1xx_HAL_Driver/Src/stm32f1xx_hal_rtc.c ****     (+) To configure the RTC Calendar (Time and Date) use the HAL_RTC_SetTime() 
  29:./Drivers/STM32F1xx_HAL_Driver/Src/stm32f1xx_hal_rtc.c ****         and HAL_RTC_SetDate() functions.
  30:./Drivers/STM32F1xx_HAL_Driver/Src/stm32f1xx_hal_rtc.c ****     (+) To read the RTC Calendar, use the HAL_RTC_GetTime() and HAL_RTC_GetDate() functions.
  31:./Drivers/STM32F1xx_HAL_Driver/Src/stm32f1xx_hal_rtc.c ****   
  32:./Drivers/STM32F1xx_HAL_Driver/Src/stm32f1xx_hal_rtc.c ****   *** Alarm configuration ***
ARM GAS  /tmp/ccTzASZE.s 			page 2


  33:./Drivers/STM32F1xx_HAL_Driver/Src/stm32f1xx_hal_rtc.c ****   ===========================
  34:./Drivers/STM32F1xx_HAL_Driver/Src/stm32f1xx_hal_rtc.c ****   [..]
  35:./Drivers/STM32F1xx_HAL_Driver/Src/stm32f1xx_hal_rtc.c ****     (+) To configure the RTC Alarm use the HAL_RTC_SetAlarm() function. 
  36:./Drivers/STM32F1xx_HAL_Driver/Src/stm32f1xx_hal_rtc.c ****         You can also configure the RTC Alarm with interrupt mode using the HAL_RTC_SetAlarm_IT() fu
  37:./Drivers/STM32F1xx_HAL_Driver/Src/stm32f1xx_hal_rtc.c ****     (+) To read the RTC Alarm, use the HAL_RTC_GetAlarm() function.
  38:./Drivers/STM32F1xx_HAL_Driver/Src/stm32f1xx_hal_rtc.c ****   
  39:./Drivers/STM32F1xx_HAL_Driver/Src/stm32f1xx_hal_rtc.c ****   *** Tamper configuration ***
  40:./Drivers/STM32F1xx_HAL_Driver/Src/stm32f1xx_hal_rtc.c ****   ============================
  41:./Drivers/STM32F1xx_HAL_Driver/Src/stm32f1xx_hal_rtc.c ****   [..]
  42:./Drivers/STM32F1xx_HAL_Driver/Src/stm32f1xx_hal_rtc.c ****     (+) Enable the RTC Tamper and configure the Tamper Level using the 
  43:./Drivers/STM32F1xx_HAL_Driver/Src/stm32f1xx_hal_rtc.c ****         HAL_RTCEx_SetTamper() function. You can configure RTC Tamper with interrupt
  44:./Drivers/STM32F1xx_HAL_Driver/Src/stm32f1xx_hal_rtc.c ****         mode using HAL_RTCEx_SetTamper_IT() function.
  45:./Drivers/STM32F1xx_HAL_Driver/Src/stm32f1xx_hal_rtc.c ****     (+) The TAMPER1 alternate function can be mapped to PC13
  46:./Drivers/STM32F1xx_HAL_Driver/Src/stm32f1xx_hal_rtc.c **** 
  47:./Drivers/STM32F1xx_HAL_Driver/Src/stm32f1xx_hal_rtc.c ****   *** Backup Data Registers configuration ***
  48:./Drivers/STM32F1xx_HAL_Driver/Src/stm32f1xx_hal_rtc.c ****   ===========================================
  49:./Drivers/STM32F1xx_HAL_Driver/Src/stm32f1xx_hal_rtc.c ****   [..]
  50:./Drivers/STM32F1xx_HAL_Driver/Src/stm32f1xx_hal_rtc.c ****     (+) To write to the RTC Backup Data registers, use the HAL_RTCEx_BKUPWrite()
  51:./Drivers/STM32F1xx_HAL_Driver/Src/stm32f1xx_hal_rtc.c ****         function.  
  52:./Drivers/STM32F1xx_HAL_Driver/Src/stm32f1xx_hal_rtc.c ****     (+) To read the RTC Backup Data registers, use the HAL_RTCEx_BKUPRead()
  53:./Drivers/STM32F1xx_HAL_Driver/Src/stm32f1xx_hal_rtc.c ****         function.
  54:./Drivers/STM32F1xx_HAL_Driver/Src/stm32f1xx_hal_rtc.c ****      
  55:./Drivers/STM32F1xx_HAL_Driver/Src/stm32f1xx_hal_rtc.c ****                   ##### WARNING: Drivers Restrictions  #####
  56:./Drivers/STM32F1xx_HAL_Driver/Src/stm32f1xx_hal_rtc.c ****   ==================================================================
  57:./Drivers/STM32F1xx_HAL_Driver/Src/stm32f1xx_hal_rtc.c ****   [..] RTC version used on STM32F1 families is version V1. All the features supported by V2
  58:./Drivers/STM32F1xx_HAL_Driver/Src/stm32f1xx_hal_rtc.c ****        (other families) will be not supported on F1.
  59:./Drivers/STM32F1xx_HAL_Driver/Src/stm32f1xx_hal_rtc.c ****   [..] As on V2, main RTC features are managed by HW. But on F1, date feature is completely 
  60:./Drivers/STM32F1xx_HAL_Driver/Src/stm32f1xx_hal_rtc.c ****        managed by SW.
  61:./Drivers/STM32F1xx_HAL_Driver/Src/stm32f1xx_hal_rtc.c ****   [..] Then, there are some restrictions compared to other families:
  62:./Drivers/STM32F1xx_HAL_Driver/Src/stm32f1xx_hal_rtc.c ****     (+) Only format 24 hours supported in HAL (format 12 hours not supported)
  63:./Drivers/STM32F1xx_HAL_Driver/Src/stm32f1xx_hal_rtc.c ****     (+) Date is saved in SRAM. Then, when MCU is in STOP or STANDBY mode, date will be lost.
  64:./Drivers/STM32F1xx_HAL_Driver/Src/stm32f1xx_hal_rtc.c ****         User should implement a way to save date before entering in low power mode (an 
  65:./Drivers/STM32F1xx_HAL_Driver/Src/stm32f1xx_hal_rtc.c ****         example is provided with firmware package based on backup registers)
  66:./Drivers/STM32F1xx_HAL_Driver/Src/stm32f1xx_hal_rtc.c ****     (+) Date is automatically updated each time a HAL_RTC_GetTime or HAL_RTC_GetDate is called.
  67:./Drivers/STM32F1xx_HAL_Driver/Src/stm32f1xx_hal_rtc.c ****     (+) Alarm detection is limited to 1 day. It will expire only 1 time (no alarm repetition, need
  68:./Drivers/STM32F1xx_HAL_Driver/Src/stm32f1xx_hal_rtc.c ****         to program a new alarm)
  69:./Drivers/STM32F1xx_HAL_Driver/Src/stm32f1xx_hal_rtc.c **** 
  70:./Drivers/STM32F1xx_HAL_Driver/Src/stm32f1xx_hal_rtc.c ****               ##### Backup Domain Operating Condition #####
  71:./Drivers/STM32F1xx_HAL_Driver/Src/stm32f1xx_hal_rtc.c ****   ==============================================================================
  72:./Drivers/STM32F1xx_HAL_Driver/Src/stm32f1xx_hal_rtc.c ****   [..] The real-time clock (RTC) and the RTC backup registers can be powered
  73:./Drivers/STM32F1xx_HAL_Driver/Src/stm32f1xx_hal_rtc.c ****        from the VBAT voltage when the main VDD supply is powered off.
  74:./Drivers/STM32F1xx_HAL_Driver/Src/stm32f1xx_hal_rtc.c ****        To retain the content of the RTC backup registers and supply the RTC 
  75:./Drivers/STM32F1xx_HAL_Driver/Src/stm32f1xx_hal_rtc.c ****        when VDD is turned off, VBAT pin can be connected to an optional 
  76:./Drivers/STM32F1xx_HAL_Driver/Src/stm32f1xx_hal_rtc.c ****        standby voltage supplied by a battery or by another source.
  77:./Drivers/STM32F1xx_HAL_Driver/Src/stm32f1xx_hal_rtc.c **** 
  78:./Drivers/STM32F1xx_HAL_Driver/Src/stm32f1xx_hal_rtc.c ****   [..] To allow the RTC operating even when the main digital supply (VDD) is turned
  79:./Drivers/STM32F1xx_HAL_Driver/Src/stm32f1xx_hal_rtc.c ****        off, the VBAT pin powers the following blocks:
  80:./Drivers/STM32F1xx_HAL_Driver/Src/stm32f1xx_hal_rtc.c ****     (+) The RTC
  81:./Drivers/STM32F1xx_HAL_Driver/Src/stm32f1xx_hal_rtc.c ****     (+) The LSE oscillator
  82:./Drivers/STM32F1xx_HAL_Driver/Src/stm32f1xx_hal_rtc.c ****     (+) PC13 I/O
  83:./Drivers/STM32F1xx_HAL_Driver/Src/stm32f1xx_hal_rtc.c ****   
  84:./Drivers/STM32F1xx_HAL_Driver/Src/stm32f1xx_hal_rtc.c ****   [..] When the backup domain is supplied by VDD (analog switch connected to VDD),
  85:./Drivers/STM32F1xx_HAL_Driver/Src/stm32f1xx_hal_rtc.c ****        the following pins are available:
  86:./Drivers/STM32F1xx_HAL_Driver/Src/stm32f1xx_hal_rtc.c ****     (+) PC13 can be used as a Tamper pin
  87:./Drivers/STM32F1xx_HAL_Driver/Src/stm32f1xx_hal_rtc.c ****   
  88:./Drivers/STM32F1xx_HAL_Driver/Src/stm32f1xx_hal_rtc.c ****   [..] When the backup domain is supplied by VBAT (analog switch connected to VBAT 
  89:./Drivers/STM32F1xx_HAL_Driver/Src/stm32f1xx_hal_rtc.c ****        because VDD is not present), the following pins are available:
ARM GAS  /tmp/ccTzASZE.s 			page 3


  90:./Drivers/STM32F1xx_HAL_Driver/Src/stm32f1xx_hal_rtc.c ****     (+) PC13 can be used as the Tamper pin 
  91:./Drivers/STM32F1xx_HAL_Driver/Src/stm32f1xx_hal_rtc.c ****              
  92:./Drivers/STM32F1xx_HAL_Driver/Src/stm32f1xx_hal_rtc.c ****                    ##### Backup Domain Reset #####
  93:./Drivers/STM32F1xx_HAL_Driver/Src/stm32f1xx_hal_rtc.c ****   ==================================================================
  94:./Drivers/STM32F1xx_HAL_Driver/Src/stm32f1xx_hal_rtc.c ****   [..] The backup domain reset sets all RTC registers and the RCC_BDCR register
  95:./Drivers/STM32F1xx_HAL_Driver/Src/stm32f1xx_hal_rtc.c ****        to their reset values. 
  96:./Drivers/STM32F1xx_HAL_Driver/Src/stm32f1xx_hal_rtc.c ****   [..] A backup domain reset is generated when one of the following events occurs:
  97:./Drivers/STM32F1xx_HAL_Driver/Src/stm32f1xx_hal_rtc.c ****     (#) Software reset, triggered by setting the BDRST bit in the 
  98:./Drivers/STM32F1xx_HAL_Driver/Src/stm32f1xx_hal_rtc.c ****         RCC Backup domain control register (RCC_BDCR). 
  99:./Drivers/STM32F1xx_HAL_Driver/Src/stm32f1xx_hal_rtc.c ****     (#) VDD or VBAT power on, if both supplies have previously been powered off.  
 100:./Drivers/STM32F1xx_HAL_Driver/Src/stm32f1xx_hal_rtc.c ****     (#) Tamper detection event resets all data backup registers.
 101:./Drivers/STM32F1xx_HAL_Driver/Src/stm32f1xx_hal_rtc.c **** 
 102:./Drivers/STM32F1xx_HAL_Driver/Src/stm32f1xx_hal_rtc.c ****                    ##### Backup Domain Access #####
 103:./Drivers/STM32F1xx_HAL_Driver/Src/stm32f1xx_hal_rtc.c ****   ==================================================================
 104:./Drivers/STM32F1xx_HAL_Driver/Src/stm32f1xx_hal_rtc.c ****   [..] After reset, the backup domain (RTC registers, RTC backup data 
 105:./Drivers/STM32F1xx_HAL_Driver/Src/stm32f1xx_hal_rtc.c ****        registers and backup SRAM) is protected against possible unwanted write 
 106:./Drivers/STM32F1xx_HAL_Driver/Src/stm32f1xx_hal_rtc.c ****        accesses. 
 107:./Drivers/STM32F1xx_HAL_Driver/Src/stm32f1xx_hal_rtc.c ****   [..] To enable access to the RTC Domain and RTC registers, proceed as follows:
 108:./Drivers/STM32F1xx_HAL_Driver/Src/stm32f1xx_hal_rtc.c ****     (+) Call the function HAL_RCCEx_PeriphCLKConfig in using RCC_PERIPHCLK_RTC for
 109:./Drivers/STM32F1xx_HAL_Driver/Src/stm32f1xx_hal_rtc.c ****         PeriphClockSelection and select RTCClockSelection (LSE, LSI or HSE)
 110:./Drivers/STM32F1xx_HAL_Driver/Src/stm32f1xx_hal_rtc.c ****     (+) Enable the BKP clock in using __HAL_RCC_BKP_CLK_ENABLE()
 111:./Drivers/STM32F1xx_HAL_Driver/Src/stm32f1xx_hal_rtc.c ****   
 112:./Drivers/STM32F1xx_HAL_Driver/Src/stm32f1xx_hal_rtc.c ****                   ##### RTC and low power modes #####
 113:./Drivers/STM32F1xx_HAL_Driver/Src/stm32f1xx_hal_rtc.c ****   ==================================================================
 114:./Drivers/STM32F1xx_HAL_Driver/Src/stm32f1xx_hal_rtc.c ****   [..] The MCU can be woken up from a low power mode by an RTC alternate 
 115:./Drivers/STM32F1xx_HAL_Driver/Src/stm32f1xx_hal_rtc.c ****        function.
 116:./Drivers/STM32F1xx_HAL_Driver/Src/stm32f1xx_hal_rtc.c ****   [..] The RTC alternate functions are the RTC alarms (Alarm A), 
 117:./Drivers/STM32F1xx_HAL_Driver/Src/stm32f1xx_hal_rtc.c ****        and RTC tamper event detection.
 118:./Drivers/STM32F1xx_HAL_Driver/Src/stm32f1xx_hal_rtc.c ****        These RTC alternate functions can wake up the system from the Stop and 
 119:./Drivers/STM32F1xx_HAL_Driver/Src/stm32f1xx_hal_rtc.c ****        Standby low power modes.
 120:./Drivers/STM32F1xx_HAL_Driver/Src/stm32f1xx_hal_rtc.c ****   [..] The system can also wake up from low power modes without depending 
 121:./Drivers/STM32F1xx_HAL_Driver/Src/stm32f1xx_hal_rtc.c ****        on an external interrupt (Auto-wakeup mode), by using the RTC alarm.
 122:./Drivers/STM32F1xx_HAL_Driver/Src/stm32f1xx_hal_rtc.c ****      
 123:./Drivers/STM32F1xx_HAL_Driver/Src/stm32f1xx_hal_rtc.c ****    @endverbatim
 124:./Drivers/STM32F1xx_HAL_Driver/Src/stm32f1xx_hal_rtc.c ****   ******************************************************************************
 125:./Drivers/STM32F1xx_HAL_Driver/Src/stm32f1xx_hal_rtc.c ****   * @attention
 126:./Drivers/STM32F1xx_HAL_Driver/Src/stm32f1xx_hal_rtc.c ****   *
 127:./Drivers/STM32F1xx_HAL_Driver/Src/stm32f1xx_hal_rtc.c ****   * <h2><center>&copy; COPYRIGHT(c) 2016 STMicroelectronics</center></h2>
 128:./Drivers/STM32F1xx_HAL_Driver/Src/stm32f1xx_hal_rtc.c ****   *
 129:./Drivers/STM32F1xx_HAL_Driver/Src/stm32f1xx_hal_rtc.c ****   * Redistribution and use in source and binary forms, with or without modification,
 130:./Drivers/STM32F1xx_HAL_Driver/Src/stm32f1xx_hal_rtc.c ****   * are permitted provided that the following conditions are met:
 131:./Drivers/STM32F1xx_HAL_Driver/Src/stm32f1xx_hal_rtc.c ****   *   1. Redistributions of source code must retain the above copyright notice,
 132:./Drivers/STM32F1xx_HAL_Driver/Src/stm32f1xx_hal_rtc.c ****   *      this list of conditions and the following disclaimer.
 133:./Drivers/STM32F1xx_HAL_Driver/Src/stm32f1xx_hal_rtc.c ****   *   2. Redistributions in binary form must reproduce the above copyright notice,
 134:./Drivers/STM32F1xx_HAL_Driver/Src/stm32f1xx_hal_rtc.c ****   *      this list of conditions and the following disclaimer in the documentation
 135:./Drivers/STM32F1xx_HAL_Driver/Src/stm32f1xx_hal_rtc.c ****   *      and/or other materials provided with the distribution.
 136:./Drivers/STM32F1xx_HAL_Driver/Src/stm32f1xx_hal_rtc.c ****   *   3. Neither the name of STMicroelectronics nor the names of its contributors
 137:./Drivers/STM32F1xx_HAL_Driver/Src/stm32f1xx_hal_rtc.c ****   *      may be used to endorse or promote products derived from this software
 138:./Drivers/STM32F1xx_HAL_Driver/Src/stm32f1xx_hal_rtc.c ****   *      without specific prior written permission.
 139:./Drivers/STM32F1xx_HAL_Driver/Src/stm32f1xx_hal_rtc.c ****   *
 140:./Drivers/STM32F1xx_HAL_Driver/Src/stm32f1xx_hal_rtc.c ****   * THIS SOFTWARE IS PROVIDED BY THE COPYRIGHT HOLDERS AND CONTRIBUTORS "AS IS"
 141:./Drivers/STM32F1xx_HAL_Driver/Src/stm32f1xx_hal_rtc.c ****   * AND ANY EXPRESS OR IMPLIED WARRANTIES, INCLUDING, BUT NOT LIMITED TO, THE
 142:./Drivers/STM32F1xx_HAL_Driver/Src/stm32f1xx_hal_rtc.c ****   * IMPLIED WARRANTIES OF MERCHANTABILITY AND FITNESS FOR A PARTICULAR PURPOSE ARE
 143:./Drivers/STM32F1xx_HAL_Driver/Src/stm32f1xx_hal_rtc.c ****   * DISCLAIMED. IN NO EVENT SHALL THE COPYRIGHT HOLDER OR CONTRIBUTORS BE LIABLE
 144:./Drivers/STM32F1xx_HAL_Driver/Src/stm32f1xx_hal_rtc.c ****   * FOR ANY DIRECT, INDIRECT, INCIDENTAL, SPECIAL, EXEMPLARY, OR CONSEQUENTIAL
 145:./Drivers/STM32F1xx_HAL_Driver/Src/stm32f1xx_hal_rtc.c ****   * DAMAGES (INCLUDING, BUT NOT LIMITED TO, PROCUREMENT OF SUBSTITUTE GOODS OR
 146:./Drivers/STM32F1xx_HAL_Driver/Src/stm32f1xx_hal_rtc.c ****   * SERVICES; LOSS OF USE, DATA, OR PROFITS; OR BUSINESS INTERRUPTION) HOWEVER
ARM GAS  /tmp/ccTzASZE.s 			page 4


 147:./Drivers/STM32F1xx_HAL_Driver/Src/stm32f1xx_hal_rtc.c ****   * CAUSED AND ON ANY THEORY OF LIABILITY, WHETHER IN CONTRACT, STRICT LIABILITY,
 148:./Drivers/STM32F1xx_HAL_Driver/Src/stm32f1xx_hal_rtc.c ****   * OR TORT (INCLUDING NEGLIGENCE OR OTHERWISE) ARISING IN ANY WAY OUT OF THE USE
 149:./Drivers/STM32F1xx_HAL_Driver/Src/stm32f1xx_hal_rtc.c ****   * OF THIS SOFTWARE, EVEN IF ADVISED OF THE POSSIBILITY OF SUCH DAMAGE.
 150:./Drivers/STM32F1xx_HAL_Driver/Src/stm32f1xx_hal_rtc.c ****   *
 151:./Drivers/STM32F1xx_HAL_Driver/Src/stm32f1xx_hal_rtc.c ****   ******************************************************************************
 152:./Drivers/STM32F1xx_HAL_Driver/Src/stm32f1xx_hal_rtc.c ****   */ 
 153:./Drivers/STM32F1xx_HAL_Driver/Src/stm32f1xx_hal_rtc.c **** 
 154:./Drivers/STM32F1xx_HAL_Driver/Src/stm32f1xx_hal_rtc.c **** /* Includes ------------------------------------------------------------------*/
 155:./Drivers/STM32F1xx_HAL_Driver/Src/stm32f1xx_hal_rtc.c **** #include "stm32f1xx_hal.h"
 156:./Drivers/STM32F1xx_HAL_Driver/Src/stm32f1xx_hal_rtc.c **** 
 157:./Drivers/STM32F1xx_HAL_Driver/Src/stm32f1xx_hal_rtc.c **** /** @addtogroup STM32F1xx_HAL_Driver
 158:./Drivers/STM32F1xx_HAL_Driver/Src/stm32f1xx_hal_rtc.c ****   * @{
 159:./Drivers/STM32F1xx_HAL_Driver/Src/stm32f1xx_hal_rtc.c ****   */
 160:./Drivers/STM32F1xx_HAL_Driver/Src/stm32f1xx_hal_rtc.c **** 
 161:./Drivers/STM32F1xx_HAL_Driver/Src/stm32f1xx_hal_rtc.c **** /** @defgroup RTC RTC
 162:./Drivers/STM32F1xx_HAL_Driver/Src/stm32f1xx_hal_rtc.c ****   * @brief RTC HAL module driver
 163:./Drivers/STM32F1xx_HAL_Driver/Src/stm32f1xx_hal_rtc.c ****   * @{
 164:./Drivers/STM32F1xx_HAL_Driver/Src/stm32f1xx_hal_rtc.c ****   */
 165:./Drivers/STM32F1xx_HAL_Driver/Src/stm32f1xx_hal_rtc.c **** 
 166:./Drivers/STM32F1xx_HAL_Driver/Src/stm32f1xx_hal_rtc.c **** #ifdef HAL_RTC_MODULE_ENABLED
 167:./Drivers/STM32F1xx_HAL_Driver/Src/stm32f1xx_hal_rtc.c **** 
 168:./Drivers/STM32F1xx_HAL_Driver/Src/stm32f1xx_hal_rtc.c **** /* Private typedef -----------------------------------------------------------*/
 169:./Drivers/STM32F1xx_HAL_Driver/Src/stm32f1xx_hal_rtc.c **** /* Private define ------------------------------------------------------------*/
 170:./Drivers/STM32F1xx_HAL_Driver/Src/stm32f1xx_hal_rtc.c **** /** @defgroup RTC_Private_Constants RTC Private Constants
 171:./Drivers/STM32F1xx_HAL_Driver/Src/stm32f1xx_hal_rtc.c ****   * @{
 172:./Drivers/STM32F1xx_HAL_Driver/Src/stm32f1xx_hal_rtc.c ****   */
 173:./Drivers/STM32F1xx_HAL_Driver/Src/stm32f1xx_hal_rtc.c **** #define RTC_ALARM_RESETVALUE_REGISTER    (uint16_t)0xFFFF
 174:./Drivers/STM32F1xx_HAL_Driver/Src/stm32f1xx_hal_rtc.c **** #define RTC_ALARM_RESETVALUE             0xFFFFFFFFU
 175:./Drivers/STM32F1xx_HAL_Driver/Src/stm32f1xx_hal_rtc.c **** 
 176:./Drivers/STM32F1xx_HAL_Driver/Src/stm32f1xx_hal_rtc.c **** /**
 177:./Drivers/STM32F1xx_HAL_Driver/Src/stm32f1xx_hal_rtc.c ****   * @}
 178:./Drivers/STM32F1xx_HAL_Driver/Src/stm32f1xx_hal_rtc.c ****   */
 179:./Drivers/STM32F1xx_HAL_Driver/Src/stm32f1xx_hal_rtc.c **** 
 180:./Drivers/STM32F1xx_HAL_Driver/Src/stm32f1xx_hal_rtc.c **** /* Private macro -------------------------------------------------------------*/
 181:./Drivers/STM32F1xx_HAL_Driver/Src/stm32f1xx_hal_rtc.c **** /** @defgroup RTC_Private_Macros RTC Private Macros
 182:./Drivers/STM32F1xx_HAL_Driver/Src/stm32f1xx_hal_rtc.c ****   * @{
 183:./Drivers/STM32F1xx_HAL_Driver/Src/stm32f1xx_hal_rtc.c ****   */
 184:./Drivers/STM32F1xx_HAL_Driver/Src/stm32f1xx_hal_rtc.c **** /**
 185:./Drivers/STM32F1xx_HAL_Driver/Src/stm32f1xx_hal_rtc.c ****   * @}
 186:./Drivers/STM32F1xx_HAL_Driver/Src/stm32f1xx_hal_rtc.c ****   */
 187:./Drivers/STM32F1xx_HAL_Driver/Src/stm32f1xx_hal_rtc.c **** 
 188:./Drivers/STM32F1xx_HAL_Driver/Src/stm32f1xx_hal_rtc.c **** /* Private variables ---------------------------------------------------------*/
 189:./Drivers/STM32F1xx_HAL_Driver/Src/stm32f1xx_hal_rtc.c **** /* Private function prototypes -----------------------------------------------*/
 190:./Drivers/STM32F1xx_HAL_Driver/Src/stm32f1xx_hal_rtc.c **** /** @defgroup RTC_Private_Functions RTC Private Functions
 191:./Drivers/STM32F1xx_HAL_Driver/Src/stm32f1xx_hal_rtc.c ****   * @{
 192:./Drivers/STM32F1xx_HAL_Driver/Src/stm32f1xx_hal_rtc.c ****   */
 193:./Drivers/STM32F1xx_HAL_Driver/Src/stm32f1xx_hal_rtc.c **** static uint32_t           RTC_ReadTimeCounter(RTC_HandleTypeDef* hrtc);
 194:./Drivers/STM32F1xx_HAL_Driver/Src/stm32f1xx_hal_rtc.c **** static HAL_StatusTypeDef  RTC_WriteTimeCounter(RTC_HandleTypeDef* hrtc, uint32_t TimeCounter);
 195:./Drivers/STM32F1xx_HAL_Driver/Src/stm32f1xx_hal_rtc.c **** static uint32_t           RTC_ReadAlarmCounter(RTC_HandleTypeDef* hrtc);
 196:./Drivers/STM32F1xx_HAL_Driver/Src/stm32f1xx_hal_rtc.c **** static HAL_StatusTypeDef  RTC_WriteAlarmCounter(RTC_HandleTypeDef* hrtc, uint32_t AlarmCounter);
 197:./Drivers/STM32F1xx_HAL_Driver/Src/stm32f1xx_hal_rtc.c **** static HAL_StatusTypeDef  RTC_EnterInitMode(RTC_HandleTypeDef* hrtc);
 198:./Drivers/STM32F1xx_HAL_Driver/Src/stm32f1xx_hal_rtc.c **** static HAL_StatusTypeDef  RTC_ExitInitMode(RTC_HandleTypeDef* hrtc);
 199:./Drivers/STM32F1xx_HAL_Driver/Src/stm32f1xx_hal_rtc.c **** static uint8_t            RTC_ByteToBcd2(uint8_t Value);
 200:./Drivers/STM32F1xx_HAL_Driver/Src/stm32f1xx_hal_rtc.c **** static uint8_t            RTC_Bcd2ToByte(uint8_t Value);
 201:./Drivers/STM32F1xx_HAL_Driver/Src/stm32f1xx_hal_rtc.c **** static uint8_t            RTC_IsLeapYear(uint16_t nYear);
 202:./Drivers/STM32F1xx_HAL_Driver/Src/stm32f1xx_hal_rtc.c **** static void               RTC_DateUpdate(RTC_HandleTypeDef* hrtc, uint32_t DayElapsed);
 203:./Drivers/STM32F1xx_HAL_Driver/Src/stm32f1xx_hal_rtc.c **** static uint8_t            RTC_WeekDayNum(uint32_t nYear, uint8_t nMonth, uint8_t nDay);
ARM GAS  /tmp/ccTzASZE.s 			page 5


 204:./Drivers/STM32F1xx_HAL_Driver/Src/stm32f1xx_hal_rtc.c **** 
 205:./Drivers/STM32F1xx_HAL_Driver/Src/stm32f1xx_hal_rtc.c **** /**
 206:./Drivers/STM32F1xx_HAL_Driver/Src/stm32f1xx_hal_rtc.c ****   * @}
 207:./Drivers/STM32F1xx_HAL_Driver/Src/stm32f1xx_hal_rtc.c ****   */
 208:./Drivers/STM32F1xx_HAL_Driver/Src/stm32f1xx_hal_rtc.c **** 
 209:./Drivers/STM32F1xx_HAL_Driver/Src/stm32f1xx_hal_rtc.c **** /* Private functions ---------------------------------------------------------*/
 210:./Drivers/STM32F1xx_HAL_Driver/Src/stm32f1xx_hal_rtc.c **** /** @defgroup RTC_Exported_Functions RTC Exported Functions
 211:./Drivers/STM32F1xx_HAL_Driver/Src/stm32f1xx_hal_rtc.c ****   * @{
 212:./Drivers/STM32F1xx_HAL_Driver/Src/stm32f1xx_hal_rtc.c ****   */
 213:./Drivers/STM32F1xx_HAL_Driver/Src/stm32f1xx_hal_rtc.c ****   
 214:./Drivers/STM32F1xx_HAL_Driver/Src/stm32f1xx_hal_rtc.c **** /** @defgroup RTC_Exported_Functions_Group1 Initialization and de-initialization functions 
 215:./Drivers/STM32F1xx_HAL_Driver/Src/stm32f1xx_hal_rtc.c ****  *  @brief    Initialization and Configuration functions 
 216:./Drivers/STM32F1xx_HAL_Driver/Src/stm32f1xx_hal_rtc.c ****  *
 217:./Drivers/STM32F1xx_HAL_Driver/Src/stm32f1xx_hal_rtc.c **** @verbatim    
 218:./Drivers/STM32F1xx_HAL_Driver/Src/stm32f1xx_hal_rtc.c ****  ===============================================================================
 219:./Drivers/STM32F1xx_HAL_Driver/Src/stm32f1xx_hal_rtc.c ****               ##### Initialization and de-initialization functions #####
 220:./Drivers/STM32F1xx_HAL_Driver/Src/stm32f1xx_hal_rtc.c ****  ===============================================================================
 221:./Drivers/STM32F1xx_HAL_Driver/Src/stm32f1xx_hal_rtc.c ****    [..] This section provides functions allowing to initialize and configure the 
 222:./Drivers/STM32F1xx_HAL_Driver/Src/stm32f1xx_hal_rtc.c ****          RTC Prescaler (Asynchronous), disable RTC registers Write protection, 
 223:./Drivers/STM32F1xx_HAL_Driver/Src/stm32f1xx_hal_rtc.c ****          enter and exit the RTC initialization mode, 
 224:./Drivers/STM32F1xx_HAL_Driver/Src/stm32f1xx_hal_rtc.c ****          RTC registers synchronization check and reference clock detection enable.
 225:./Drivers/STM32F1xx_HAL_Driver/Src/stm32f1xx_hal_rtc.c ****          (#) The RTC Prescaler should be programmed to generate the RTC 1Hz time base. 
 226:./Drivers/STM32F1xx_HAL_Driver/Src/stm32f1xx_hal_rtc.c ****          (#) All RTC registers are Write protected. Writing to the RTC registers
 227:./Drivers/STM32F1xx_HAL_Driver/Src/stm32f1xx_hal_rtc.c ****              is enabled by setting the CNF bit in the RTC_CRL register.
 228:./Drivers/STM32F1xx_HAL_Driver/Src/stm32f1xx_hal_rtc.c ****          (#) To read the calendar after wakeup from low power modes (Standby or Stop) 
 229:./Drivers/STM32F1xx_HAL_Driver/Src/stm32f1xx_hal_rtc.c ****              the software must first wait for the RSF bit (Register Synchronized Flag) 
 230:./Drivers/STM32F1xx_HAL_Driver/Src/stm32f1xx_hal_rtc.c ****              in the RTC_CRL register to be set by hardware.
 231:./Drivers/STM32F1xx_HAL_Driver/Src/stm32f1xx_hal_rtc.c ****              The HAL_RTC_WaitForSynchro() function implements the above software 
 232:./Drivers/STM32F1xx_HAL_Driver/Src/stm32f1xx_hal_rtc.c ****              sequence (RSF clear and RSF check).
 233:./Drivers/STM32F1xx_HAL_Driver/Src/stm32f1xx_hal_rtc.c ****  
 234:./Drivers/STM32F1xx_HAL_Driver/Src/stm32f1xx_hal_rtc.c **** @endverbatim
 235:./Drivers/STM32F1xx_HAL_Driver/Src/stm32f1xx_hal_rtc.c ****   * @{
 236:./Drivers/STM32F1xx_HAL_Driver/Src/stm32f1xx_hal_rtc.c ****   */
 237:./Drivers/STM32F1xx_HAL_Driver/Src/stm32f1xx_hal_rtc.c **** 
 238:./Drivers/STM32F1xx_HAL_Driver/Src/stm32f1xx_hal_rtc.c **** /**
 239:./Drivers/STM32F1xx_HAL_Driver/Src/stm32f1xx_hal_rtc.c ****   * @brief  Initializes the RTC peripheral 
 240:./Drivers/STM32F1xx_HAL_Driver/Src/stm32f1xx_hal_rtc.c ****   * @param  hrtc   pointer to a RTC_HandleTypeDef structure that contains
 241:./Drivers/STM32F1xx_HAL_Driver/Src/stm32f1xx_hal_rtc.c ****   *                the configuration information for RTC.
 242:./Drivers/STM32F1xx_HAL_Driver/Src/stm32f1xx_hal_rtc.c ****   * @retval HAL status
 243:./Drivers/STM32F1xx_HAL_Driver/Src/stm32f1xx_hal_rtc.c ****   */
 244:./Drivers/STM32F1xx_HAL_Driver/Src/stm32f1xx_hal_rtc.c **** HAL_StatusTypeDef HAL_RTC_Init(RTC_HandleTypeDef *hrtc)
 245:./Drivers/STM32F1xx_HAL_Driver/Src/stm32f1xx_hal_rtc.c **** {
 246:./Drivers/STM32F1xx_HAL_Driver/Src/stm32f1xx_hal_rtc.c ****   uint32_t prescaler = 0U;
 247:./Drivers/STM32F1xx_HAL_Driver/Src/stm32f1xx_hal_rtc.c ****   /* Check input parameters */
 248:./Drivers/STM32F1xx_HAL_Driver/Src/stm32f1xx_hal_rtc.c ****   if(hrtc == NULL)
 249:./Drivers/STM32F1xx_HAL_Driver/Src/stm32f1xx_hal_rtc.c ****   {
 250:./Drivers/STM32F1xx_HAL_Driver/Src/stm32f1xx_hal_rtc.c ****      return HAL_ERROR;
 251:./Drivers/STM32F1xx_HAL_Driver/Src/stm32f1xx_hal_rtc.c ****   }
 252:./Drivers/STM32F1xx_HAL_Driver/Src/stm32f1xx_hal_rtc.c ****   
 253:./Drivers/STM32F1xx_HAL_Driver/Src/stm32f1xx_hal_rtc.c ****   /* Check the parameters */
 254:./Drivers/STM32F1xx_HAL_Driver/Src/stm32f1xx_hal_rtc.c ****   assert_param(IS_RTC_ALL_INSTANCE(hrtc->Instance));
 255:./Drivers/STM32F1xx_HAL_Driver/Src/stm32f1xx_hal_rtc.c ****   assert_param(IS_RTC_CALIB_OUTPUT(hrtc->Init.OutPut));
 256:./Drivers/STM32F1xx_HAL_Driver/Src/stm32f1xx_hal_rtc.c ****   assert_param(IS_RTC_ASYNCH_PREDIV(hrtc->Init.AsynchPrediv));
 257:./Drivers/STM32F1xx_HAL_Driver/Src/stm32f1xx_hal_rtc.c ****     
 258:./Drivers/STM32F1xx_HAL_Driver/Src/stm32f1xx_hal_rtc.c ****   if(hrtc->State == HAL_RTC_STATE_RESET)
 259:./Drivers/STM32F1xx_HAL_Driver/Src/stm32f1xx_hal_rtc.c ****   {
 260:./Drivers/STM32F1xx_HAL_Driver/Src/stm32f1xx_hal_rtc.c ****     /* Allocate lock resource and initialize it */
ARM GAS  /tmp/ccTzASZE.s 			page 6


 261:./Drivers/STM32F1xx_HAL_Driver/Src/stm32f1xx_hal_rtc.c ****     hrtc->Lock = HAL_UNLOCKED;
 262:./Drivers/STM32F1xx_HAL_Driver/Src/stm32f1xx_hal_rtc.c ****     
 263:./Drivers/STM32F1xx_HAL_Driver/Src/stm32f1xx_hal_rtc.c ****     /* Initialize RTC MSP */
 264:./Drivers/STM32F1xx_HAL_Driver/Src/stm32f1xx_hal_rtc.c ****     HAL_RTC_MspInit(hrtc);
 265:./Drivers/STM32F1xx_HAL_Driver/Src/stm32f1xx_hal_rtc.c ****   }
 266:./Drivers/STM32F1xx_HAL_Driver/Src/stm32f1xx_hal_rtc.c ****   
 267:./Drivers/STM32F1xx_HAL_Driver/Src/stm32f1xx_hal_rtc.c ****   /* Set RTC state */  
 268:./Drivers/STM32F1xx_HAL_Driver/Src/stm32f1xx_hal_rtc.c ****   hrtc->State = HAL_RTC_STATE_BUSY;  
 269:./Drivers/STM32F1xx_HAL_Driver/Src/stm32f1xx_hal_rtc.c ****        
 270:./Drivers/STM32F1xx_HAL_Driver/Src/stm32f1xx_hal_rtc.c ****   /* Waiting for synchro */
 271:./Drivers/STM32F1xx_HAL_Driver/Src/stm32f1xx_hal_rtc.c ****   if(HAL_RTC_WaitForSynchro(hrtc) != HAL_OK)
 272:./Drivers/STM32F1xx_HAL_Driver/Src/stm32f1xx_hal_rtc.c ****   {
 273:./Drivers/STM32F1xx_HAL_Driver/Src/stm32f1xx_hal_rtc.c ****     /* Set RTC state */
 274:./Drivers/STM32F1xx_HAL_Driver/Src/stm32f1xx_hal_rtc.c ****     hrtc->State = HAL_RTC_STATE_ERROR;
 275:./Drivers/STM32F1xx_HAL_Driver/Src/stm32f1xx_hal_rtc.c ****     
 276:./Drivers/STM32F1xx_HAL_Driver/Src/stm32f1xx_hal_rtc.c ****     return HAL_ERROR;
 277:./Drivers/STM32F1xx_HAL_Driver/Src/stm32f1xx_hal_rtc.c ****   } 
 278:./Drivers/STM32F1xx_HAL_Driver/Src/stm32f1xx_hal_rtc.c **** 
 279:./Drivers/STM32F1xx_HAL_Driver/Src/stm32f1xx_hal_rtc.c ****   /* Set Initialization mode */
 280:./Drivers/STM32F1xx_HAL_Driver/Src/stm32f1xx_hal_rtc.c ****   if(RTC_EnterInitMode(hrtc) != HAL_OK)
 281:./Drivers/STM32F1xx_HAL_Driver/Src/stm32f1xx_hal_rtc.c ****   {
 282:./Drivers/STM32F1xx_HAL_Driver/Src/stm32f1xx_hal_rtc.c ****     /* Set RTC state */
 283:./Drivers/STM32F1xx_HAL_Driver/Src/stm32f1xx_hal_rtc.c ****     hrtc->State = HAL_RTC_STATE_ERROR;
 284:./Drivers/STM32F1xx_HAL_Driver/Src/stm32f1xx_hal_rtc.c ****     
 285:./Drivers/STM32F1xx_HAL_Driver/Src/stm32f1xx_hal_rtc.c ****     return HAL_ERROR;
 286:./Drivers/STM32F1xx_HAL_Driver/Src/stm32f1xx_hal_rtc.c ****   } 
 287:./Drivers/STM32F1xx_HAL_Driver/Src/stm32f1xx_hal_rtc.c ****   else
 288:./Drivers/STM32F1xx_HAL_Driver/Src/stm32f1xx_hal_rtc.c ****   { 
 289:./Drivers/STM32F1xx_HAL_Driver/Src/stm32f1xx_hal_rtc.c ****     /* Clear Flags Bits */
 290:./Drivers/STM32F1xx_HAL_Driver/Src/stm32f1xx_hal_rtc.c ****     CLEAR_BIT(hrtc->Instance->CRL, (RTC_FLAG_OW | RTC_FLAG_ALRAF | RTC_FLAG_SEC));
 291:./Drivers/STM32F1xx_HAL_Driver/Src/stm32f1xx_hal_rtc.c ****     
 292:./Drivers/STM32F1xx_HAL_Driver/Src/stm32f1xx_hal_rtc.c ****     if(hrtc->Init.OutPut != RTC_OUTPUTSOURCE_NONE)
 293:./Drivers/STM32F1xx_HAL_Driver/Src/stm32f1xx_hal_rtc.c ****     {
 294:./Drivers/STM32F1xx_HAL_Driver/Src/stm32f1xx_hal_rtc.c ****       /* Disable the selected Tamper pin */
 295:./Drivers/STM32F1xx_HAL_Driver/Src/stm32f1xx_hal_rtc.c ****       CLEAR_BIT(BKP->CR, BKP_CR_TPE);
 296:./Drivers/STM32F1xx_HAL_Driver/Src/stm32f1xx_hal_rtc.c ****     }
 297:./Drivers/STM32F1xx_HAL_Driver/Src/stm32f1xx_hal_rtc.c ****     
 298:./Drivers/STM32F1xx_HAL_Driver/Src/stm32f1xx_hal_rtc.c ****     /* Set the signal which will be routed to RTC Tamper pin*/
 299:./Drivers/STM32F1xx_HAL_Driver/Src/stm32f1xx_hal_rtc.c ****     MODIFY_REG(BKP->RTCCR, (BKP_RTCCR_CCO | BKP_RTCCR_ASOE | BKP_RTCCR_ASOS), hrtc->Init.OutPut);
 300:./Drivers/STM32F1xx_HAL_Driver/Src/stm32f1xx_hal_rtc.c **** 
 301:./Drivers/STM32F1xx_HAL_Driver/Src/stm32f1xx_hal_rtc.c ****     if (hrtc->Init.AsynchPrediv != RTC_AUTO_1_SECOND)
 302:./Drivers/STM32F1xx_HAL_Driver/Src/stm32f1xx_hal_rtc.c ****     {
 303:./Drivers/STM32F1xx_HAL_Driver/Src/stm32f1xx_hal_rtc.c ****       /* RTC Prescaler provided directly by end-user*/
 304:./Drivers/STM32F1xx_HAL_Driver/Src/stm32f1xx_hal_rtc.c ****       prescaler = hrtc->Init.AsynchPrediv;
 305:./Drivers/STM32F1xx_HAL_Driver/Src/stm32f1xx_hal_rtc.c ****     }
 306:./Drivers/STM32F1xx_HAL_Driver/Src/stm32f1xx_hal_rtc.c ****     else
 307:./Drivers/STM32F1xx_HAL_Driver/Src/stm32f1xx_hal_rtc.c ****     {
 308:./Drivers/STM32F1xx_HAL_Driver/Src/stm32f1xx_hal_rtc.c ****       /* RTC Prescaler will be automatically calculated to get 1 second timebase */
 309:./Drivers/STM32F1xx_HAL_Driver/Src/stm32f1xx_hal_rtc.c ****       /* Get the RTCCLK frequency */
 310:./Drivers/STM32F1xx_HAL_Driver/Src/stm32f1xx_hal_rtc.c ****       prescaler = HAL_RCCEx_GetPeriphCLKFreq(RCC_PERIPHCLK_RTC);
 311:./Drivers/STM32F1xx_HAL_Driver/Src/stm32f1xx_hal_rtc.c **** 
 312:./Drivers/STM32F1xx_HAL_Driver/Src/stm32f1xx_hal_rtc.c ****       /* Check that RTC clock is enabled*/
 313:./Drivers/STM32F1xx_HAL_Driver/Src/stm32f1xx_hal_rtc.c ****       if (prescaler == 0U)
 314:./Drivers/STM32F1xx_HAL_Driver/Src/stm32f1xx_hal_rtc.c ****       {
 315:./Drivers/STM32F1xx_HAL_Driver/Src/stm32f1xx_hal_rtc.c ****         /* Should not happen. Frequency is not available*/
 316:./Drivers/STM32F1xx_HAL_Driver/Src/stm32f1xx_hal_rtc.c ****         hrtc->State = HAL_RTC_STATE_ERROR;
 317:./Drivers/STM32F1xx_HAL_Driver/Src/stm32f1xx_hal_rtc.c ****         return HAL_ERROR;
ARM GAS  /tmp/ccTzASZE.s 			page 7


 318:./Drivers/STM32F1xx_HAL_Driver/Src/stm32f1xx_hal_rtc.c ****       }
 319:./Drivers/STM32F1xx_HAL_Driver/Src/stm32f1xx_hal_rtc.c ****       else
 320:./Drivers/STM32F1xx_HAL_Driver/Src/stm32f1xx_hal_rtc.c ****       {
 321:./Drivers/STM32F1xx_HAL_Driver/Src/stm32f1xx_hal_rtc.c ****         /* RTC period = RTCCLK/(RTC_PR + 1) */
 322:./Drivers/STM32F1xx_HAL_Driver/Src/stm32f1xx_hal_rtc.c ****         prescaler = prescaler - 1U;
 323:./Drivers/STM32F1xx_HAL_Driver/Src/stm32f1xx_hal_rtc.c ****       }
 324:./Drivers/STM32F1xx_HAL_Driver/Src/stm32f1xx_hal_rtc.c ****     }
 325:./Drivers/STM32F1xx_HAL_Driver/Src/stm32f1xx_hal_rtc.c ****     
 326:./Drivers/STM32F1xx_HAL_Driver/Src/stm32f1xx_hal_rtc.c ****     /* Configure the RTC_PRLH / RTC_PRLL */
 327:./Drivers/STM32F1xx_HAL_Driver/Src/stm32f1xx_hal_rtc.c ****     MODIFY_REG(hrtc->Instance->PRLH, RTC_PRLH_PRL, (prescaler >> 16U));
 328:./Drivers/STM32F1xx_HAL_Driver/Src/stm32f1xx_hal_rtc.c ****     MODIFY_REG(hrtc->Instance->PRLL, RTC_PRLL_PRL, (prescaler & RTC_PRLL_PRL));
 329:./Drivers/STM32F1xx_HAL_Driver/Src/stm32f1xx_hal_rtc.c ****       
 330:./Drivers/STM32F1xx_HAL_Driver/Src/stm32f1xx_hal_rtc.c ****     /* Wait for synchro */
 331:./Drivers/STM32F1xx_HAL_Driver/Src/stm32f1xx_hal_rtc.c ****     if(RTC_ExitInitMode(hrtc) != HAL_OK)
 332:./Drivers/STM32F1xx_HAL_Driver/Src/stm32f1xx_hal_rtc.c ****     {       
 333:./Drivers/STM32F1xx_HAL_Driver/Src/stm32f1xx_hal_rtc.c ****       hrtc->State = HAL_RTC_STATE_ERROR;
 334:./Drivers/STM32F1xx_HAL_Driver/Src/stm32f1xx_hal_rtc.c ****       
 335:./Drivers/STM32F1xx_HAL_Driver/Src/stm32f1xx_hal_rtc.c ****       return HAL_ERROR;
 336:./Drivers/STM32F1xx_HAL_Driver/Src/stm32f1xx_hal_rtc.c ****     }
 337:./Drivers/STM32F1xx_HAL_Driver/Src/stm32f1xx_hal_rtc.c ****     
 338:./Drivers/STM32F1xx_HAL_Driver/Src/stm32f1xx_hal_rtc.c ****     /* Initialize date to 1st of January 2000 */
 339:./Drivers/STM32F1xx_HAL_Driver/Src/stm32f1xx_hal_rtc.c ****     hrtc->DateToUpdate.Year = 0x00U;
 340:./Drivers/STM32F1xx_HAL_Driver/Src/stm32f1xx_hal_rtc.c ****     hrtc->DateToUpdate.Month = RTC_MONTH_JANUARY;
 341:./Drivers/STM32F1xx_HAL_Driver/Src/stm32f1xx_hal_rtc.c ****     hrtc->DateToUpdate.Date = 0x01U;
 342:./Drivers/STM32F1xx_HAL_Driver/Src/stm32f1xx_hal_rtc.c **** 
 343:./Drivers/STM32F1xx_HAL_Driver/Src/stm32f1xx_hal_rtc.c ****     /* Set RTC state */
 344:./Drivers/STM32F1xx_HAL_Driver/Src/stm32f1xx_hal_rtc.c ****     hrtc->State = HAL_RTC_STATE_READY;
 345:./Drivers/STM32F1xx_HAL_Driver/Src/stm32f1xx_hal_rtc.c ****     
 346:./Drivers/STM32F1xx_HAL_Driver/Src/stm32f1xx_hal_rtc.c ****     return HAL_OK;
 347:./Drivers/STM32F1xx_HAL_Driver/Src/stm32f1xx_hal_rtc.c ****   }
 348:./Drivers/STM32F1xx_HAL_Driver/Src/stm32f1xx_hal_rtc.c **** }
 349:./Drivers/STM32F1xx_HAL_Driver/Src/stm32f1xx_hal_rtc.c **** 
 350:./Drivers/STM32F1xx_HAL_Driver/Src/stm32f1xx_hal_rtc.c **** /**
 351:./Drivers/STM32F1xx_HAL_Driver/Src/stm32f1xx_hal_rtc.c ****   * @brief  DeInitializes the RTC peripheral 
 352:./Drivers/STM32F1xx_HAL_Driver/Src/stm32f1xx_hal_rtc.c ****   * @param  hrtc   pointer to a RTC_HandleTypeDef structure that contains
 353:./Drivers/STM32F1xx_HAL_Driver/Src/stm32f1xx_hal_rtc.c ****   *                the configuration information for RTC.
 354:./Drivers/STM32F1xx_HAL_Driver/Src/stm32f1xx_hal_rtc.c ****   * @note   This function does not reset the RTC Backup Data registers.   
 355:./Drivers/STM32F1xx_HAL_Driver/Src/stm32f1xx_hal_rtc.c ****   * @retval HAL status
 356:./Drivers/STM32F1xx_HAL_Driver/Src/stm32f1xx_hal_rtc.c ****   */
 357:./Drivers/STM32F1xx_HAL_Driver/Src/stm32f1xx_hal_rtc.c **** HAL_StatusTypeDef HAL_RTC_DeInit(RTC_HandleTypeDef *hrtc)
 358:./Drivers/STM32F1xx_HAL_Driver/Src/stm32f1xx_hal_rtc.c **** {
 359:./Drivers/STM32F1xx_HAL_Driver/Src/stm32f1xx_hal_rtc.c ****   /* Check input parameters */
 360:./Drivers/STM32F1xx_HAL_Driver/Src/stm32f1xx_hal_rtc.c ****   if(hrtc == NULL)
 361:./Drivers/STM32F1xx_HAL_Driver/Src/stm32f1xx_hal_rtc.c ****   {
 362:./Drivers/STM32F1xx_HAL_Driver/Src/stm32f1xx_hal_rtc.c ****      return HAL_ERROR;
 363:./Drivers/STM32F1xx_HAL_Driver/Src/stm32f1xx_hal_rtc.c ****   }
 364:./Drivers/STM32F1xx_HAL_Driver/Src/stm32f1xx_hal_rtc.c ****   
 365:./Drivers/STM32F1xx_HAL_Driver/Src/stm32f1xx_hal_rtc.c ****   /* Check the parameters */
 366:./Drivers/STM32F1xx_HAL_Driver/Src/stm32f1xx_hal_rtc.c ****   assert_param(IS_RTC_ALL_INSTANCE(hrtc->Instance));
 367:./Drivers/STM32F1xx_HAL_Driver/Src/stm32f1xx_hal_rtc.c **** 
 368:./Drivers/STM32F1xx_HAL_Driver/Src/stm32f1xx_hal_rtc.c ****   /* Set RTC state */
 369:./Drivers/STM32F1xx_HAL_Driver/Src/stm32f1xx_hal_rtc.c ****   hrtc->State = HAL_RTC_STATE_BUSY; 
 370:./Drivers/STM32F1xx_HAL_Driver/Src/stm32f1xx_hal_rtc.c ****   
 371:./Drivers/STM32F1xx_HAL_Driver/Src/stm32f1xx_hal_rtc.c ****   /* Set Initialization mode */
 372:./Drivers/STM32F1xx_HAL_Driver/Src/stm32f1xx_hal_rtc.c ****   if(RTC_EnterInitMode(hrtc) != HAL_OK)
 373:./Drivers/STM32F1xx_HAL_Driver/Src/stm32f1xx_hal_rtc.c ****   {
 374:./Drivers/STM32F1xx_HAL_Driver/Src/stm32f1xx_hal_rtc.c ****     /* Set RTC state */
ARM GAS  /tmp/ccTzASZE.s 			page 8


 375:./Drivers/STM32F1xx_HAL_Driver/Src/stm32f1xx_hal_rtc.c ****     hrtc->State = HAL_RTC_STATE_ERROR;
 376:./Drivers/STM32F1xx_HAL_Driver/Src/stm32f1xx_hal_rtc.c ****     
 377:./Drivers/STM32F1xx_HAL_Driver/Src/stm32f1xx_hal_rtc.c ****     /* Release Lock */
 378:./Drivers/STM32F1xx_HAL_Driver/Src/stm32f1xx_hal_rtc.c ****     __HAL_UNLOCK(hrtc);
 379:./Drivers/STM32F1xx_HAL_Driver/Src/stm32f1xx_hal_rtc.c **** 
 380:./Drivers/STM32F1xx_HAL_Driver/Src/stm32f1xx_hal_rtc.c ****     return HAL_ERROR;
 381:./Drivers/STM32F1xx_HAL_Driver/Src/stm32f1xx_hal_rtc.c ****   }  
 382:./Drivers/STM32F1xx_HAL_Driver/Src/stm32f1xx_hal_rtc.c ****   else
 383:./Drivers/STM32F1xx_HAL_Driver/Src/stm32f1xx_hal_rtc.c ****   {
 384:./Drivers/STM32F1xx_HAL_Driver/Src/stm32f1xx_hal_rtc.c ****     CLEAR_REG(hrtc->Instance->CNTL);
 385:./Drivers/STM32F1xx_HAL_Driver/Src/stm32f1xx_hal_rtc.c ****     CLEAR_REG(hrtc->Instance->CNTH);
 386:./Drivers/STM32F1xx_HAL_Driver/Src/stm32f1xx_hal_rtc.c ****     WRITE_REG(hrtc->Instance->PRLL, 0x00008000U);
 387:./Drivers/STM32F1xx_HAL_Driver/Src/stm32f1xx_hal_rtc.c ****     CLEAR_REG(hrtc->Instance->PRLH);
 388:./Drivers/STM32F1xx_HAL_Driver/Src/stm32f1xx_hal_rtc.c **** 
 389:./Drivers/STM32F1xx_HAL_Driver/Src/stm32f1xx_hal_rtc.c ****     /* Reset All CRH/CRL bits */
 390:./Drivers/STM32F1xx_HAL_Driver/Src/stm32f1xx_hal_rtc.c ****     CLEAR_REG(hrtc->Instance->CRH);
 391:./Drivers/STM32F1xx_HAL_Driver/Src/stm32f1xx_hal_rtc.c ****     CLEAR_REG(hrtc->Instance->CRL);
 392:./Drivers/STM32F1xx_HAL_Driver/Src/stm32f1xx_hal_rtc.c ****     
 393:./Drivers/STM32F1xx_HAL_Driver/Src/stm32f1xx_hal_rtc.c ****     if(RTC_ExitInitMode(hrtc) != HAL_OK)
 394:./Drivers/STM32F1xx_HAL_Driver/Src/stm32f1xx_hal_rtc.c ****     {       
 395:./Drivers/STM32F1xx_HAL_Driver/Src/stm32f1xx_hal_rtc.c ****       hrtc->State = HAL_RTC_STATE_ERROR;
 396:./Drivers/STM32F1xx_HAL_Driver/Src/stm32f1xx_hal_rtc.c ****       
 397:./Drivers/STM32F1xx_HAL_Driver/Src/stm32f1xx_hal_rtc.c ****       /* Process Unlocked */ 
 398:./Drivers/STM32F1xx_HAL_Driver/Src/stm32f1xx_hal_rtc.c ****       __HAL_UNLOCK(hrtc);
 399:./Drivers/STM32F1xx_HAL_Driver/Src/stm32f1xx_hal_rtc.c ****       
 400:./Drivers/STM32F1xx_HAL_Driver/Src/stm32f1xx_hal_rtc.c ****       return HAL_ERROR;
 401:./Drivers/STM32F1xx_HAL_Driver/Src/stm32f1xx_hal_rtc.c ****     }
 402:./Drivers/STM32F1xx_HAL_Driver/Src/stm32f1xx_hal_rtc.c ****   }
 403:./Drivers/STM32F1xx_HAL_Driver/Src/stm32f1xx_hal_rtc.c **** 
 404:./Drivers/STM32F1xx_HAL_Driver/Src/stm32f1xx_hal_rtc.c ****   /* Wait for synchro*/
 405:./Drivers/STM32F1xx_HAL_Driver/Src/stm32f1xx_hal_rtc.c ****   HAL_RTC_WaitForSynchro(hrtc);
 406:./Drivers/STM32F1xx_HAL_Driver/Src/stm32f1xx_hal_rtc.c **** 
 407:./Drivers/STM32F1xx_HAL_Driver/Src/stm32f1xx_hal_rtc.c ****   /* Clear RSF flag */
 408:./Drivers/STM32F1xx_HAL_Driver/Src/stm32f1xx_hal_rtc.c ****   CLEAR_BIT(hrtc->Instance->CRL, RTC_FLAG_RSF);
 409:./Drivers/STM32F1xx_HAL_Driver/Src/stm32f1xx_hal_rtc.c ****     
 410:./Drivers/STM32F1xx_HAL_Driver/Src/stm32f1xx_hal_rtc.c ****   /* De-Initialize RTC MSP */
 411:./Drivers/STM32F1xx_HAL_Driver/Src/stm32f1xx_hal_rtc.c ****   HAL_RTC_MspDeInit(hrtc);
 412:./Drivers/STM32F1xx_HAL_Driver/Src/stm32f1xx_hal_rtc.c **** 
 413:./Drivers/STM32F1xx_HAL_Driver/Src/stm32f1xx_hal_rtc.c ****   hrtc->State = HAL_RTC_STATE_RESET; 
 414:./Drivers/STM32F1xx_HAL_Driver/Src/stm32f1xx_hal_rtc.c ****   
 415:./Drivers/STM32F1xx_HAL_Driver/Src/stm32f1xx_hal_rtc.c ****   /* Release Lock */
 416:./Drivers/STM32F1xx_HAL_Driver/Src/stm32f1xx_hal_rtc.c ****   __HAL_UNLOCK(hrtc);
 417:./Drivers/STM32F1xx_HAL_Driver/Src/stm32f1xx_hal_rtc.c **** 
 418:./Drivers/STM32F1xx_HAL_Driver/Src/stm32f1xx_hal_rtc.c ****   return HAL_OK;
 419:./Drivers/STM32F1xx_HAL_Driver/Src/stm32f1xx_hal_rtc.c **** }
 420:./Drivers/STM32F1xx_HAL_Driver/Src/stm32f1xx_hal_rtc.c **** 
 421:./Drivers/STM32F1xx_HAL_Driver/Src/stm32f1xx_hal_rtc.c **** /**
 422:./Drivers/STM32F1xx_HAL_Driver/Src/stm32f1xx_hal_rtc.c ****   * @brief  Initializes the RTC MSP.
 423:./Drivers/STM32F1xx_HAL_Driver/Src/stm32f1xx_hal_rtc.c ****   * @param  hrtc   pointer to a RTC_HandleTypeDef structure that contains
 424:./Drivers/STM32F1xx_HAL_Driver/Src/stm32f1xx_hal_rtc.c ****   *                the configuration information for RTC.  
 425:./Drivers/STM32F1xx_HAL_Driver/Src/stm32f1xx_hal_rtc.c ****   * @retval None
 426:./Drivers/STM32F1xx_HAL_Driver/Src/stm32f1xx_hal_rtc.c ****   */
 427:./Drivers/STM32F1xx_HAL_Driver/Src/stm32f1xx_hal_rtc.c **** __weak void HAL_RTC_MspInit(RTC_HandleTypeDef* hrtc)
 428:./Drivers/STM32F1xx_HAL_Driver/Src/stm32f1xx_hal_rtc.c **** {
 429:./Drivers/STM32F1xx_HAL_Driver/Src/stm32f1xx_hal_rtc.c ****   /* Prevent unused argument(s) compilation warning */
 430:./Drivers/STM32F1xx_HAL_Driver/Src/stm32f1xx_hal_rtc.c ****   UNUSED(hrtc);
 431:./Drivers/STM32F1xx_HAL_Driver/Src/stm32f1xx_hal_rtc.c ****   /* NOTE : This function Should not be modified, when the callback is needed,
ARM GAS  /tmp/ccTzASZE.s 			page 9


 432:./Drivers/STM32F1xx_HAL_Driver/Src/stm32f1xx_hal_rtc.c ****             the HAL_RTC_MspInit could be implemented in the user file
 433:./Drivers/STM32F1xx_HAL_Driver/Src/stm32f1xx_hal_rtc.c ****    */ 
 434:./Drivers/STM32F1xx_HAL_Driver/Src/stm32f1xx_hal_rtc.c **** }
 435:./Drivers/STM32F1xx_HAL_Driver/Src/stm32f1xx_hal_rtc.c **** 
 436:./Drivers/STM32F1xx_HAL_Driver/Src/stm32f1xx_hal_rtc.c **** /**
 437:./Drivers/STM32F1xx_HAL_Driver/Src/stm32f1xx_hal_rtc.c ****   * @brief  DeInitializes the RTC MSP.
 438:./Drivers/STM32F1xx_HAL_Driver/Src/stm32f1xx_hal_rtc.c ****   * @param  hrtc   pointer to a RTC_HandleTypeDef structure that contains
 439:./Drivers/STM32F1xx_HAL_Driver/Src/stm32f1xx_hal_rtc.c ****   *                the configuration information for RTC. 
 440:./Drivers/STM32F1xx_HAL_Driver/Src/stm32f1xx_hal_rtc.c ****   * @retval None
 441:./Drivers/STM32F1xx_HAL_Driver/Src/stm32f1xx_hal_rtc.c ****   */
 442:./Drivers/STM32F1xx_HAL_Driver/Src/stm32f1xx_hal_rtc.c **** __weak void HAL_RTC_MspDeInit(RTC_HandleTypeDef* hrtc)
 443:./Drivers/STM32F1xx_HAL_Driver/Src/stm32f1xx_hal_rtc.c **** {
 444:./Drivers/STM32F1xx_HAL_Driver/Src/stm32f1xx_hal_rtc.c ****   /* Prevent unused argument(s) compilation warning */
 445:./Drivers/STM32F1xx_HAL_Driver/Src/stm32f1xx_hal_rtc.c ****   UNUSED(hrtc);
 446:./Drivers/STM32F1xx_HAL_Driver/Src/stm32f1xx_hal_rtc.c ****   /* NOTE : This function Should not be modified, when the callback is needed,
 447:./Drivers/STM32F1xx_HAL_Driver/Src/stm32f1xx_hal_rtc.c ****             the HAL_RTC_MspDeInit could be implemented in the user file
 448:./Drivers/STM32F1xx_HAL_Driver/Src/stm32f1xx_hal_rtc.c ****    */ 
 449:./Drivers/STM32F1xx_HAL_Driver/Src/stm32f1xx_hal_rtc.c **** }
 450:./Drivers/STM32F1xx_HAL_Driver/Src/stm32f1xx_hal_rtc.c **** 
 451:./Drivers/STM32F1xx_HAL_Driver/Src/stm32f1xx_hal_rtc.c **** /**
 452:./Drivers/STM32F1xx_HAL_Driver/Src/stm32f1xx_hal_rtc.c ****   * @}
 453:./Drivers/STM32F1xx_HAL_Driver/Src/stm32f1xx_hal_rtc.c ****   */
 454:./Drivers/STM32F1xx_HAL_Driver/Src/stm32f1xx_hal_rtc.c **** 
 455:./Drivers/STM32F1xx_HAL_Driver/Src/stm32f1xx_hal_rtc.c **** /** @defgroup RTC_Exported_Functions_Group2 Time and Date functions
 456:./Drivers/STM32F1xx_HAL_Driver/Src/stm32f1xx_hal_rtc.c ****  *  @brief   RTC Time and Date functions
 457:./Drivers/STM32F1xx_HAL_Driver/Src/stm32f1xx_hal_rtc.c ****  *
 458:./Drivers/STM32F1xx_HAL_Driver/Src/stm32f1xx_hal_rtc.c **** @verbatim   
 459:./Drivers/STM32F1xx_HAL_Driver/Src/stm32f1xx_hal_rtc.c ****  ===============================================================================
 460:./Drivers/STM32F1xx_HAL_Driver/Src/stm32f1xx_hal_rtc.c ****                  ##### RTC Time and Date functions #####
 461:./Drivers/STM32F1xx_HAL_Driver/Src/stm32f1xx_hal_rtc.c ****  ===============================================================================  
 462:./Drivers/STM32F1xx_HAL_Driver/Src/stm32f1xx_hal_rtc.c ****  
 463:./Drivers/STM32F1xx_HAL_Driver/Src/stm32f1xx_hal_rtc.c ****  [..] This section provides functions allowing to configure Time and Date features
 464:./Drivers/STM32F1xx_HAL_Driver/Src/stm32f1xx_hal_rtc.c **** 
 465:./Drivers/STM32F1xx_HAL_Driver/Src/stm32f1xx_hal_rtc.c **** @endverbatim
 466:./Drivers/STM32F1xx_HAL_Driver/Src/stm32f1xx_hal_rtc.c ****   * @{
 467:./Drivers/STM32F1xx_HAL_Driver/Src/stm32f1xx_hal_rtc.c ****   */
 468:./Drivers/STM32F1xx_HAL_Driver/Src/stm32f1xx_hal_rtc.c **** 
 469:./Drivers/STM32F1xx_HAL_Driver/Src/stm32f1xx_hal_rtc.c **** /**
 470:./Drivers/STM32F1xx_HAL_Driver/Src/stm32f1xx_hal_rtc.c ****   * @brief  Sets RTC current time.
 471:./Drivers/STM32F1xx_HAL_Driver/Src/stm32f1xx_hal_rtc.c ****   * @param  hrtc   pointer to a RTC_HandleTypeDef structure that contains
 472:./Drivers/STM32F1xx_HAL_Driver/Src/stm32f1xx_hal_rtc.c ****   *                the configuration information for RTC.
 473:./Drivers/STM32F1xx_HAL_Driver/Src/stm32f1xx_hal_rtc.c ****   * @param  sTime: Pointer to Time structure
 474:./Drivers/STM32F1xx_HAL_Driver/Src/stm32f1xx_hal_rtc.c ****   * @param  Format: Specifies the format of the entered parameters.
 475:./Drivers/STM32F1xx_HAL_Driver/Src/stm32f1xx_hal_rtc.c ****   *          This parameter can be one of the following values:
 476:./Drivers/STM32F1xx_HAL_Driver/Src/stm32f1xx_hal_rtc.c ****   *            @arg RTC_FORMAT_BIN: Binary data format 
 477:./Drivers/STM32F1xx_HAL_Driver/Src/stm32f1xx_hal_rtc.c ****   *            @arg RTC_FORMAT_BCD: BCD data format
 478:./Drivers/STM32F1xx_HAL_Driver/Src/stm32f1xx_hal_rtc.c ****   * @retval HAL status
 479:./Drivers/STM32F1xx_HAL_Driver/Src/stm32f1xx_hal_rtc.c ****   */
 480:./Drivers/STM32F1xx_HAL_Driver/Src/stm32f1xx_hal_rtc.c **** HAL_StatusTypeDef HAL_RTC_SetTime(RTC_HandleTypeDef *hrtc, RTC_TimeTypeDef *sTime, uint32_t Format)
 481:./Drivers/STM32F1xx_HAL_Driver/Src/stm32f1xx_hal_rtc.c **** {
 482:./Drivers/STM32F1xx_HAL_Driver/Src/stm32f1xx_hal_rtc.c ****   uint32_t counter_time = 0U, counter_alarm = 0U;
 483:./Drivers/STM32F1xx_HAL_Driver/Src/stm32f1xx_hal_rtc.c ****   
 484:./Drivers/STM32F1xx_HAL_Driver/Src/stm32f1xx_hal_rtc.c ****   /* Check input parameters */
 485:./Drivers/STM32F1xx_HAL_Driver/Src/stm32f1xx_hal_rtc.c ****   if((hrtc == NULL) || (sTime == NULL))
 486:./Drivers/STM32F1xx_HAL_Driver/Src/stm32f1xx_hal_rtc.c ****   {
 487:./Drivers/STM32F1xx_HAL_Driver/Src/stm32f1xx_hal_rtc.c ****      return HAL_ERROR;
 488:./Drivers/STM32F1xx_HAL_Driver/Src/stm32f1xx_hal_rtc.c ****   }
ARM GAS  /tmp/ccTzASZE.s 			page 10


 489:./Drivers/STM32F1xx_HAL_Driver/Src/stm32f1xx_hal_rtc.c ****   
 490:./Drivers/STM32F1xx_HAL_Driver/Src/stm32f1xx_hal_rtc.c ****  /* Check the parameters */
 491:./Drivers/STM32F1xx_HAL_Driver/Src/stm32f1xx_hal_rtc.c ****   assert_param(IS_RTC_FORMAT(Format));
 492:./Drivers/STM32F1xx_HAL_Driver/Src/stm32f1xx_hal_rtc.c ****   
 493:./Drivers/STM32F1xx_HAL_Driver/Src/stm32f1xx_hal_rtc.c ****   /* Process Locked */ 
 494:./Drivers/STM32F1xx_HAL_Driver/Src/stm32f1xx_hal_rtc.c ****   __HAL_LOCK(hrtc);
 495:./Drivers/STM32F1xx_HAL_Driver/Src/stm32f1xx_hal_rtc.c ****   
 496:./Drivers/STM32F1xx_HAL_Driver/Src/stm32f1xx_hal_rtc.c ****   hrtc->State = HAL_RTC_STATE_BUSY;
 497:./Drivers/STM32F1xx_HAL_Driver/Src/stm32f1xx_hal_rtc.c ****   
 498:./Drivers/STM32F1xx_HAL_Driver/Src/stm32f1xx_hal_rtc.c ****   if(Format == RTC_FORMAT_BIN)
 499:./Drivers/STM32F1xx_HAL_Driver/Src/stm32f1xx_hal_rtc.c ****   {
 500:./Drivers/STM32F1xx_HAL_Driver/Src/stm32f1xx_hal_rtc.c ****     assert_param(IS_RTC_HOUR24(sTime->Hours));
 501:./Drivers/STM32F1xx_HAL_Driver/Src/stm32f1xx_hal_rtc.c ****     assert_param(IS_RTC_MINUTES(sTime->Minutes));
 502:./Drivers/STM32F1xx_HAL_Driver/Src/stm32f1xx_hal_rtc.c ****     assert_param(IS_RTC_SECONDS(sTime->Seconds));
 503:./Drivers/STM32F1xx_HAL_Driver/Src/stm32f1xx_hal_rtc.c **** 
 504:./Drivers/STM32F1xx_HAL_Driver/Src/stm32f1xx_hal_rtc.c ****     counter_time = (uint32_t)(((uint32_t)sTime->Hours * 3600U) + \
 505:./Drivers/STM32F1xx_HAL_Driver/Src/stm32f1xx_hal_rtc.c ****                         ((uint32_t)sTime->Minutes * 60U) + \
 506:./Drivers/STM32F1xx_HAL_Driver/Src/stm32f1xx_hal_rtc.c ****                         ((uint32_t)sTime->Seconds));  
 507:./Drivers/STM32F1xx_HAL_Driver/Src/stm32f1xx_hal_rtc.c ****   }
 508:./Drivers/STM32F1xx_HAL_Driver/Src/stm32f1xx_hal_rtc.c ****   else
 509:./Drivers/STM32F1xx_HAL_Driver/Src/stm32f1xx_hal_rtc.c ****   {
 510:./Drivers/STM32F1xx_HAL_Driver/Src/stm32f1xx_hal_rtc.c ****     assert_param(IS_RTC_HOUR24(RTC_Bcd2ToByte(sTime->Hours)));
 511:./Drivers/STM32F1xx_HAL_Driver/Src/stm32f1xx_hal_rtc.c ****     assert_param(IS_RTC_MINUTES(RTC_Bcd2ToByte(sTime->Minutes)));
 512:./Drivers/STM32F1xx_HAL_Driver/Src/stm32f1xx_hal_rtc.c ****     assert_param(IS_RTC_SECONDS(RTC_Bcd2ToByte(sTime->Seconds)));
 513:./Drivers/STM32F1xx_HAL_Driver/Src/stm32f1xx_hal_rtc.c **** 
 514:./Drivers/STM32F1xx_HAL_Driver/Src/stm32f1xx_hal_rtc.c ****     counter_time = (((uint32_t)(RTC_Bcd2ToByte(sTime->Hours)) * 3600U) + \
 515:./Drivers/STM32F1xx_HAL_Driver/Src/stm32f1xx_hal_rtc.c ****               ((uint32_t)(RTC_Bcd2ToByte(sTime->Minutes)) * 60U) + \
 516:./Drivers/STM32F1xx_HAL_Driver/Src/stm32f1xx_hal_rtc.c ****               ((uint32_t)(RTC_Bcd2ToByte(sTime->Seconds))));   
 517:./Drivers/STM32F1xx_HAL_Driver/Src/stm32f1xx_hal_rtc.c ****   }
 518:./Drivers/STM32F1xx_HAL_Driver/Src/stm32f1xx_hal_rtc.c **** 
 519:./Drivers/STM32F1xx_HAL_Driver/Src/stm32f1xx_hal_rtc.c ****   /* Write time counter in RTC registers */
 520:./Drivers/STM32F1xx_HAL_Driver/Src/stm32f1xx_hal_rtc.c ****   if (RTC_WriteTimeCounter(hrtc, counter_time) != HAL_OK)
 521:./Drivers/STM32F1xx_HAL_Driver/Src/stm32f1xx_hal_rtc.c ****   {
 522:./Drivers/STM32F1xx_HAL_Driver/Src/stm32f1xx_hal_rtc.c ****     /* Set RTC state */
 523:./Drivers/STM32F1xx_HAL_Driver/Src/stm32f1xx_hal_rtc.c ****     hrtc->State = HAL_RTC_STATE_ERROR;
 524:./Drivers/STM32F1xx_HAL_Driver/Src/stm32f1xx_hal_rtc.c ****     
 525:./Drivers/STM32F1xx_HAL_Driver/Src/stm32f1xx_hal_rtc.c ****     /* Process Unlocked */ 
 526:./Drivers/STM32F1xx_HAL_Driver/Src/stm32f1xx_hal_rtc.c ****     __HAL_UNLOCK(hrtc);
 527:./Drivers/STM32F1xx_HAL_Driver/Src/stm32f1xx_hal_rtc.c ****     
 528:./Drivers/STM32F1xx_HAL_Driver/Src/stm32f1xx_hal_rtc.c ****     return HAL_ERROR;
 529:./Drivers/STM32F1xx_HAL_Driver/Src/stm32f1xx_hal_rtc.c ****   }
 530:./Drivers/STM32F1xx_HAL_Driver/Src/stm32f1xx_hal_rtc.c ****   else
 531:./Drivers/STM32F1xx_HAL_Driver/Src/stm32f1xx_hal_rtc.c ****   {
 532:./Drivers/STM32F1xx_HAL_Driver/Src/stm32f1xx_hal_rtc.c ****     /* Clear Second and overflow flags */
 533:./Drivers/STM32F1xx_HAL_Driver/Src/stm32f1xx_hal_rtc.c ****     CLEAR_BIT(hrtc->Instance->CRL, (RTC_FLAG_SEC | RTC_FLAG_OW));
 534:./Drivers/STM32F1xx_HAL_Driver/Src/stm32f1xx_hal_rtc.c ****     
 535:./Drivers/STM32F1xx_HAL_Driver/Src/stm32f1xx_hal_rtc.c ****     /* Read current Alarm counter in RTC registers */
 536:./Drivers/STM32F1xx_HAL_Driver/Src/stm32f1xx_hal_rtc.c ****     counter_alarm = RTC_ReadAlarmCounter(hrtc);
 537:./Drivers/STM32F1xx_HAL_Driver/Src/stm32f1xx_hal_rtc.c **** 
 538:./Drivers/STM32F1xx_HAL_Driver/Src/stm32f1xx_hal_rtc.c ****     /* Set again alarm to match with new time if enabled */
 539:./Drivers/STM32F1xx_HAL_Driver/Src/stm32f1xx_hal_rtc.c ****     if (counter_alarm != RTC_ALARM_RESETVALUE)
 540:./Drivers/STM32F1xx_HAL_Driver/Src/stm32f1xx_hal_rtc.c ****     {
 541:./Drivers/STM32F1xx_HAL_Driver/Src/stm32f1xx_hal_rtc.c ****       if(counter_alarm < counter_time)
 542:./Drivers/STM32F1xx_HAL_Driver/Src/stm32f1xx_hal_rtc.c ****       {
 543:./Drivers/STM32F1xx_HAL_Driver/Src/stm32f1xx_hal_rtc.c ****         /* Add 1 day to alarm counter*/
 544:./Drivers/STM32F1xx_HAL_Driver/Src/stm32f1xx_hal_rtc.c ****         counter_alarm += (uint32_t)(24U * 3600U);
 545:./Drivers/STM32F1xx_HAL_Driver/Src/stm32f1xx_hal_rtc.c ****         
ARM GAS  /tmp/ccTzASZE.s 			page 11


 546:./Drivers/STM32F1xx_HAL_Driver/Src/stm32f1xx_hal_rtc.c ****         /* Write new Alarm counter in RTC registers */
 547:./Drivers/STM32F1xx_HAL_Driver/Src/stm32f1xx_hal_rtc.c ****         if (RTC_WriteAlarmCounter(hrtc, counter_alarm) != HAL_OK)
 548:./Drivers/STM32F1xx_HAL_Driver/Src/stm32f1xx_hal_rtc.c ****         {
 549:./Drivers/STM32F1xx_HAL_Driver/Src/stm32f1xx_hal_rtc.c ****           /* Set RTC state */
 550:./Drivers/STM32F1xx_HAL_Driver/Src/stm32f1xx_hal_rtc.c ****           hrtc->State = HAL_RTC_STATE_ERROR;
 551:./Drivers/STM32F1xx_HAL_Driver/Src/stm32f1xx_hal_rtc.c ****           
 552:./Drivers/STM32F1xx_HAL_Driver/Src/stm32f1xx_hal_rtc.c ****           /* Process Unlocked */ 
 553:./Drivers/STM32F1xx_HAL_Driver/Src/stm32f1xx_hal_rtc.c ****           __HAL_UNLOCK(hrtc);
 554:./Drivers/STM32F1xx_HAL_Driver/Src/stm32f1xx_hal_rtc.c ****           
 555:./Drivers/STM32F1xx_HAL_Driver/Src/stm32f1xx_hal_rtc.c ****           return HAL_ERROR;
 556:./Drivers/STM32F1xx_HAL_Driver/Src/stm32f1xx_hal_rtc.c ****         }
 557:./Drivers/STM32F1xx_HAL_Driver/Src/stm32f1xx_hal_rtc.c ****       }
 558:./Drivers/STM32F1xx_HAL_Driver/Src/stm32f1xx_hal_rtc.c ****     }
 559:./Drivers/STM32F1xx_HAL_Driver/Src/stm32f1xx_hal_rtc.c ****     
 560:./Drivers/STM32F1xx_HAL_Driver/Src/stm32f1xx_hal_rtc.c ****     hrtc->State = HAL_RTC_STATE_READY;
 561:./Drivers/STM32F1xx_HAL_Driver/Src/stm32f1xx_hal_rtc.c ****   
 562:./Drivers/STM32F1xx_HAL_Driver/Src/stm32f1xx_hal_rtc.c ****    __HAL_UNLOCK(hrtc); 
 563:./Drivers/STM32F1xx_HAL_Driver/Src/stm32f1xx_hal_rtc.c ****      
 564:./Drivers/STM32F1xx_HAL_Driver/Src/stm32f1xx_hal_rtc.c ****    return HAL_OK;
 565:./Drivers/STM32F1xx_HAL_Driver/Src/stm32f1xx_hal_rtc.c ****   }
 566:./Drivers/STM32F1xx_HAL_Driver/Src/stm32f1xx_hal_rtc.c **** }
 567:./Drivers/STM32F1xx_HAL_Driver/Src/stm32f1xx_hal_rtc.c **** 
 568:./Drivers/STM32F1xx_HAL_Driver/Src/stm32f1xx_hal_rtc.c **** /**
 569:./Drivers/STM32F1xx_HAL_Driver/Src/stm32f1xx_hal_rtc.c ****   * @brief  Gets RTC current time.
 570:./Drivers/STM32F1xx_HAL_Driver/Src/stm32f1xx_hal_rtc.c ****   * @param  hrtc   pointer to a RTC_HandleTypeDef structure that contains
 571:./Drivers/STM32F1xx_HAL_Driver/Src/stm32f1xx_hal_rtc.c ****   *                the configuration information for RTC.
 572:./Drivers/STM32F1xx_HAL_Driver/Src/stm32f1xx_hal_rtc.c ****   * @param  sTime: Pointer to Time structure
 573:./Drivers/STM32F1xx_HAL_Driver/Src/stm32f1xx_hal_rtc.c ****   * @param  Format: Specifies the format of the entered parameters.
 574:./Drivers/STM32F1xx_HAL_Driver/Src/stm32f1xx_hal_rtc.c ****   *          This parameter can be one of the following values:
 575:./Drivers/STM32F1xx_HAL_Driver/Src/stm32f1xx_hal_rtc.c ****   *            @arg RTC_FORMAT_BIN: Binary data format 
 576:./Drivers/STM32F1xx_HAL_Driver/Src/stm32f1xx_hal_rtc.c ****   *            @arg RTC_FORMAT_BCD: BCD data format
 577:./Drivers/STM32F1xx_HAL_Driver/Src/stm32f1xx_hal_rtc.c ****   * @retval HAL status
 578:./Drivers/STM32F1xx_HAL_Driver/Src/stm32f1xx_hal_rtc.c ****   */
 579:./Drivers/STM32F1xx_HAL_Driver/Src/stm32f1xx_hal_rtc.c **** HAL_StatusTypeDef HAL_RTC_GetTime(RTC_HandleTypeDef *hrtc, RTC_TimeTypeDef *sTime, uint32_t Format)
 580:./Drivers/STM32F1xx_HAL_Driver/Src/stm32f1xx_hal_rtc.c **** {
 581:./Drivers/STM32F1xx_HAL_Driver/Src/stm32f1xx_hal_rtc.c ****   uint32_t counter_time = 0U, counter_alarm = 0U, days_elapsed = 0U, hours = 0U;
 582:./Drivers/STM32F1xx_HAL_Driver/Src/stm32f1xx_hal_rtc.c ****   
 583:./Drivers/STM32F1xx_HAL_Driver/Src/stm32f1xx_hal_rtc.c ****   /* Check input parameters */
 584:./Drivers/STM32F1xx_HAL_Driver/Src/stm32f1xx_hal_rtc.c ****   if((hrtc == NULL) || (sTime == NULL))
 585:./Drivers/STM32F1xx_HAL_Driver/Src/stm32f1xx_hal_rtc.c ****   {
 586:./Drivers/STM32F1xx_HAL_Driver/Src/stm32f1xx_hal_rtc.c ****      return HAL_ERROR;
 587:./Drivers/STM32F1xx_HAL_Driver/Src/stm32f1xx_hal_rtc.c ****   }
 588:./Drivers/STM32F1xx_HAL_Driver/Src/stm32f1xx_hal_rtc.c **** 
 589:./Drivers/STM32F1xx_HAL_Driver/Src/stm32f1xx_hal_rtc.c ****   /* Check the parameters */
 590:./Drivers/STM32F1xx_HAL_Driver/Src/stm32f1xx_hal_rtc.c ****   assert_param(IS_RTC_FORMAT(Format));
 591:./Drivers/STM32F1xx_HAL_Driver/Src/stm32f1xx_hal_rtc.c **** 
 592:./Drivers/STM32F1xx_HAL_Driver/Src/stm32f1xx_hal_rtc.c ****   /* Check if counter overflow occurred */
 593:./Drivers/STM32F1xx_HAL_Driver/Src/stm32f1xx_hal_rtc.c ****   if (__HAL_RTC_OVERFLOW_GET_FLAG(hrtc, RTC_FLAG_OW))
 594:./Drivers/STM32F1xx_HAL_Driver/Src/stm32f1xx_hal_rtc.c ****   {
 595:./Drivers/STM32F1xx_HAL_Driver/Src/stm32f1xx_hal_rtc.c ****       return HAL_ERROR;
 596:./Drivers/STM32F1xx_HAL_Driver/Src/stm32f1xx_hal_rtc.c ****   }
 597:./Drivers/STM32F1xx_HAL_Driver/Src/stm32f1xx_hal_rtc.c **** 
 598:./Drivers/STM32F1xx_HAL_Driver/Src/stm32f1xx_hal_rtc.c ****   /* Read the time counter*/
 599:./Drivers/STM32F1xx_HAL_Driver/Src/stm32f1xx_hal_rtc.c ****   counter_time = RTC_ReadTimeCounter(hrtc);
 600:./Drivers/STM32F1xx_HAL_Driver/Src/stm32f1xx_hal_rtc.c **** 
 601:./Drivers/STM32F1xx_HAL_Driver/Src/stm32f1xx_hal_rtc.c ****   /* Fill the structure fields with the read parameters */
 602:./Drivers/STM32F1xx_HAL_Driver/Src/stm32f1xx_hal_rtc.c ****   hours = counter_time / 3600U;
ARM GAS  /tmp/ccTzASZE.s 			page 12


 603:./Drivers/STM32F1xx_HAL_Driver/Src/stm32f1xx_hal_rtc.c ****   sTime->Minutes  = (uint8_t)((counter_time % 3600U) / 60U);
 604:./Drivers/STM32F1xx_HAL_Driver/Src/stm32f1xx_hal_rtc.c ****   sTime->Seconds  = (uint8_t)((counter_time % 3600U) % 60U);
 605:./Drivers/STM32F1xx_HAL_Driver/Src/stm32f1xx_hal_rtc.c **** 
 606:./Drivers/STM32F1xx_HAL_Driver/Src/stm32f1xx_hal_rtc.c ****   if (hours >= 24U)
 607:./Drivers/STM32F1xx_HAL_Driver/Src/stm32f1xx_hal_rtc.c ****   {
 608:./Drivers/STM32F1xx_HAL_Driver/Src/stm32f1xx_hal_rtc.c ****     /* Get number of days elapsed from last calculation */
 609:./Drivers/STM32F1xx_HAL_Driver/Src/stm32f1xx_hal_rtc.c ****     days_elapsed = (hours / 24U);
 610:./Drivers/STM32F1xx_HAL_Driver/Src/stm32f1xx_hal_rtc.c **** 
 611:./Drivers/STM32F1xx_HAL_Driver/Src/stm32f1xx_hal_rtc.c ****     /* Set Hours in RTC_TimeTypeDef structure*/
 612:./Drivers/STM32F1xx_HAL_Driver/Src/stm32f1xx_hal_rtc.c ****     sTime->Hours = (hours % 24U);    
 613:./Drivers/STM32F1xx_HAL_Driver/Src/stm32f1xx_hal_rtc.c **** 
 614:./Drivers/STM32F1xx_HAL_Driver/Src/stm32f1xx_hal_rtc.c ****     /* Read Alarm counter in RTC registers */
 615:./Drivers/STM32F1xx_HAL_Driver/Src/stm32f1xx_hal_rtc.c ****     counter_alarm = RTC_ReadAlarmCounter(hrtc);
 616:./Drivers/STM32F1xx_HAL_Driver/Src/stm32f1xx_hal_rtc.c **** 
 617:./Drivers/STM32F1xx_HAL_Driver/Src/stm32f1xx_hal_rtc.c ****     /* Calculate remaining time to reach alarm (only if set and not yet expired)*/
 618:./Drivers/STM32F1xx_HAL_Driver/Src/stm32f1xx_hal_rtc.c ****     if ((counter_alarm != RTC_ALARM_RESETVALUE) && (counter_alarm > counter_time))
 619:./Drivers/STM32F1xx_HAL_Driver/Src/stm32f1xx_hal_rtc.c ****     {
 620:./Drivers/STM32F1xx_HAL_Driver/Src/stm32f1xx_hal_rtc.c ****       counter_alarm -= counter_time;
 621:./Drivers/STM32F1xx_HAL_Driver/Src/stm32f1xx_hal_rtc.c ****     }
 622:./Drivers/STM32F1xx_HAL_Driver/Src/stm32f1xx_hal_rtc.c ****     else 
 623:./Drivers/STM32F1xx_HAL_Driver/Src/stm32f1xx_hal_rtc.c ****     {
 624:./Drivers/STM32F1xx_HAL_Driver/Src/stm32f1xx_hal_rtc.c ****       /* In case of counter_alarm < counter_time */
 625:./Drivers/STM32F1xx_HAL_Driver/Src/stm32f1xx_hal_rtc.c ****       /* Alarm expiration already occurred but alarm not deactivated */
 626:./Drivers/STM32F1xx_HAL_Driver/Src/stm32f1xx_hal_rtc.c ****       counter_alarm = RTC_ALARM_RESETVALUE;
 627:./Drivers/STM32F1xx_HAL_Driver/Src/stm32f1xx_hal_rtc.c ****     }
 628:./Drivers/STM32F1xx_HAL_Driver/Src/stm32f1xx_hal_rtc.c **** 
 629:./Drivers/STM32F1xx_HAL_Driver/Src/stm32f1xx_hal_rtc.c ****     /* Set updated time in decreasing counter by number of days elapsed */
 630:./Drivers/STM32F1xx_HAL_Driver/Src/stm32f1xx_hal_rtc.c ****     counter_time -= (days_elapsed * 24U * 3600U);
 631:./Drivers/STM32F1xx_HAL_Driver/Src/stm32f1xx_hal_rtc.c ****     
 632:./Drivers/STM32F1xx_HAL_Driver/Src/stm32f1xx_hal_rtc.c ****     /* Write time counter in RTC registers */
 633:./Drivers/STM32F1xx_HAL_Driver/Src/stm32f1xx_hal_rtc.c ****     if (RTC_WriteTimeCounter(hrtc, counter_time) != HAL_OK)
 634:./Drivers/STM32F1xx_HAL_Driver/Src/stm32f1xx_hal_rtc.c ****     {
 635:./Drivers/STM32F1xx_HAL_Driver/Src/stm32f1xx_hal_rtc.c ****       return HAL_ERROR;
 636:./Drivers/STM32F1xx_HAL_Driver/Src/stm32f1xx_hal_rtc.c ****     }
 637:./Drivers/STM32F1xx_HAL_Driver/Src/stm32f1xx_hal_rtc.c **** 
 638:./Drivers/STM32F1xx_HAL_Driver/Src/stm32f1xx_hal_rtc.c ****     /* Set updated alarm to be set */
 639:./Drivers/STM32F1xx_HAL_Driver/Src/stm32f1xx_hal_rtc.c ****     if (counter_alarm != RTC_ALARM_RESETVALUE)
 640:./Drivers/STM32F1xx_HAL_Driver/Src/stm32f1xx_hal_rtc.c ****     {
 641:./Drivers/STM32F1xx_HAL_Driver/Src/stm32f1xx_hal_rtc.c ****       counter_alarm += counter_time;
 642:./Drivers/STM32F1xx_HAL_Driver/Src/stm32f1xx_hal_rtc.c ****       
 643:./Drivers/STM32F1xx_HAL_Driver/Src/stm32f1xx_hal_rtc.c ****       /* Write time counter in RTC registers */
 644:./Drivers/STM32F1xx_HAL_Driver/Src/stm32f1xx_hal_rtc.c ****       if (RTC_WriteAlarmCounter(hrtc, counter_alarm) != HAL_OK)
 645:./Drivers/STM32F1xx_HAL_Driver/Src/stm32f1xx_hal_rtc.c ****       {
 646:./Drivers/STM32F1xx_HAL_Driver/Src/stm32f1xx_hal_rtc.c ****         return HAL_ERROR;
 647:./Drivers/STM32F1xx_HAL_Driver/Src/stm32f1xx_hal_rtc.c ****       }
 648:./Drivers/STM32F1xx_HAL_Driver/Src/stm32f1xx_hal_rtc.c ****     }
 649:./Drivers/STM32F1xx_HAL_Driver/Src/stm32f1xx_hal_rtc.c ****     else
 650:./Drivers/STM32F1xx_HAL_Driver/Src/stm32f1xx_hal_rtc.c ****     {
 651:./Drivers/STM32F1xx_HAL_Driver/Src/stm32f1xx_hal_rtc.c ****       /* Alarm already occurred. Set it to reset values to avoid unexpected expiration */
 652:./Drivers/STM32F1xx_HAL_Driver/Src/stm32f1xx_hal_rtc.c ****       if (RTC_WriteAlarmCounter(hrtc, counter_alarm) != HAL_OK)
 653:./Drivers/STM32F1xx_HAL_Driver/Src/stm32f1xx_hal_rtc.c ****       {
 654:./Drivers/STM32F1xx_HAL_Driver/Src/stm32f1xx_hal_rtc.c ****         return HAL_ERROR;
 655:./Drivers/STM32F1xx_HAL_Driver/Src/stm32f1xx_hal_rtc.c ****       }
 656:./Drivers/STM32F1xx_HAL_Driver/Src/stm32f1xx_hal_rtc.c ****     }
 657:./Drivers/STM32F1xx_HAL_Driver/Src/stm32f1xx_hal_rtc.c ****     
 658:./Drivers/STM32F1xx_HAL_Driver/Src/stm32f1xx_hal_rtc.c ****     /* Update date */
 659:./Drivers/STM32F1xx_HAL_Driver/Src/stm32f1xx_hal_rtc.c ****     RTC_DateUpdate(hrtc, days_elapsed);
ARM GAS  /tmp/ccTzASZE.s 			page 13


 660:./Drivers/STM32F1xx_HAL_Driver/Src/stm32f1xx_hal_rtc.c ****   }
 661:./Drivers/STM32F1xx_HAL_Driver/Src/stm32f1xx_hal_rtc.c ****   else 
 662:./Drivers/STM32F1xx_HAL_Driver/Src/stm32f1xx_hal_rtc.c ****   {
 663:./Drivers/STM32F1xx_HAL_Driver/Src/stm32f1xx_hal_rtc.c ****     sTime->Hours = hours;    
 664:./Drivers/STM32F1xx_HAL_Driver/Src/stm32f1xx_hal_rtc.c ****   }
 665:./Drivers/STM32F1xx_HAL_Driver/Src/stm32f1xx_hal_rtc.c **** 
 666:./Drivers/STM32F1xx_HAL_Driver/Src/stm32f1xx_hal_rtc.c ****   /* Check the input parameters format */
 667:./Drivers/STM32F1xx_HAL_Driver/Src/stm32f1xx_hal_rtc.c ****   if(Format != RTC_FORMAT_BIN)
 668:./Drivers/STM32F1xx_HAL_Driver/Src/stm32f1xx_hal_rtc.c ****   {
 669:./Drivers/STM32F1xx_HAL_Driver/Src/stm32f1xx_hal_rtc.c ****     /* Convert the time structure parameters to BCD format */
 670:./Drivers/STM32F1xx_HAL_Driver/Src/stm32f1xx_hal_rtc.c ****     sTime->Hours    = (uint8_t)RTC_ByteToBcd2(sTime->Hours);
 671:./Drivers/STM32F1xx_HAL_Driver/Src/stm32f1xx_hal_rtc.c ****     sTime->Minutes  = (uint8_t)RTC_ByteToBcd2(sTime->Minutes);
 672:./Drivers/STM32F1xx_HAL_Driver/Src/stm32f1xx_hal_rtc.c ****     sTime->Seconds  = (uint8_t)RTC_ByteToBcd2(sTime->Seconds);  
 673:./Drivers/STM32F1xx_HAL_Driver/Src/stm32f1xx_hal_rtc.c ****   }
 674:./Drivers/STM32F1xx_HAL_Driver/Src/stm32f1xx_hal_rtc.c ****   
 675:./Drivers/STM32F1xx_HAL_Driver/Src/stm32f1xx_hal_rtc.c ****   return HAL_OK;
 676:./Drivers/STM32F1xx_HAL_Driver/Src/stm32f1xx_hal_rtc.c **** }
 677:./Drivers/STM32F1xx_HAL_Driver/Src/stm32f1xx_hal_rtc.c **** 
 678:./Drivers/STM32F1xx_HAL_Driver/Src/stm32f1xx_hal_rtc.c **** 
 679:./Drivers/STM32F1xx_HAL_Driver/Src/stm32f1xx_hal_rtc.c **** /**
 680:./Drivers/STM32F1xx_HAL_Driver/Src/stm32f1xx_hal_rtc.c ****   * @brief  Sets RTC current date.
 681:./Drivers/STM32F1xx_HAL_Driver/Src/stm32f1xx_hal_rtc.c ****   * @param  hrtc   pointer to a RTC_HandleTypeDef structure that contains
 682:./Drivers/STM32F1xx_HAL_Driver/Src/stm32f1xx_hal_rtc.c ****   *                the configuration information for RTC.
 683:./Drivers/STM32F1xx_HAL_Driver/Src/stm32f1xx_hal_rtc.c ****   * @param  sDate: Pointer to date structure
 684:./Drivers/STM32F1xx_HAL_Driver/Src/stm32f1xx_hal_rtc.c ****   * @param  Format: specifies the format of the entered parameters.
 685:./Drivers/STM32F1xx_HAL_Driver/Src/stm32f1xx_hal_rtc.c ****   *          This parameter can be one of the following values:
 686:./Drivers/STM32F1xx_HAL_Driver/Src/stm32f1xx_hal_rtc.c ****   *            @arg RTC_FORMAT_BIN: Binary data format 
 687:./Drivers/STM32F1xx_HAL_Driver/Src/stm32f1xx_hal_rtc.c ****   *            @arg RTC_FORMAT_BCD: BCD data format
 688:./Drivers/STM32F1xx_HAL_Driver/Src/stm32f1xx_hal_rtc.c ****   * @retval HAL status
 689:./Drivers/STM32F1xx_HAL_Driver/Src/stm32f1xx_hal_rtc.c ****   */
 690:./Drivers/STM32F1xx_HAL_Driver/Src/stm32f1xx_hal_rtc.c **** HAL_StatusTypeDef HAL_RTC_SetDate(RTC_HandleTypeDef *hrtc, RTC_DateTypeDef *sDate, uint32_t Format)
 691:./Drivers/STM32F1xx_HAL_Driver/Src/stm32f1xx_hal_rtc.c **** {
 692:./Drivers/STM32F1xx_HAL_Driver/Src/stm32f1xx_hal_rtc.c ****   uint32_t counter_time = 0U, counter_alarm = 0U, hours = 0U;
 693:./Drivers/STM32F1xx_HAL_Driver/Src/stm32f1xx_hal_rtc.c ****   
 694:./Drivers/STM32F1xx_HAL_Driver/Src/stm32f1xx_hal_rtc.c ****   /* Check input parameters */
 695:./Drivers/STM32F1xx_HAL_Driver/Src/stm32f1xx_hal_rtc.c ****   if((hrtc == NULL) || (sDate == NULL))
 696:./Drivers/STM32F1xx_HAL_Driver/Src/stm32f1xx_hal_rtc.c ****   {
 697:./Drivers/STM32F1xx_HAL_Driver/Src/stm32f1xx_hal_rtc.c ****      return HAL_ERROR;
 698:./Drivers/STM32F1xx_HAL_Driver/Src/stm32f1xx_hal_rtc.c ****   }
 699:./Drivers/STM32F1xx_HAL_Driver/Src/stm32f1xx_hal_rtc.c ****   
 700:./Drivers/STM32F1xx_HAL_Driver/Src/stm32f1xx_hal_rtc.c ****   /* Check the parameters */
 701:./Drivers/STM32F1xx_HAL_Driver/Src/stm32f1xx_hal_rtc.c ****   assert_param(IS_RTC_FORMAT(Format));
 702:./Drivers/STM32F1xx_HAL_Driver/Src/stm32f1xx_hal_rtc.c ****   
 703:./Drivers/STM32F1xx_HAL_Driver/Src/stm32f1xx_hal_rtc.c ****  /* Process Locked */ 
 704:./Drivers/STM32F1xx_HAL_Driver/Src/stm32f1xx_hal_rtc.c ****  __HAL_LOCK(hrtc);
 705:./Drivers/STM32F1xx_HAL_Driver/Src/stm32f1xx_hal_rtc.c ****   
 706:./Drivers/STM32F1xx_HAL_Driver/Src/stm32f1xx_hal_rtc.c ****   hrtc->State = HAL_RTC_STATE_BUSY; 
 707:./Drivers/STM32F1xx_HAL_Driver/Src/stm32f1xx_hal_rtc.c ****   
 708:./Drivers/STM32F1xx_HAL_Driver/Src/stm32f1xx_hal_rtc.c ****   if(Format == RTC_FORMAT_BIN)
 709:./Drivers/STM32F1xx_HAL_Driver/Src/stm32f1xx_hal_rtc.c ****   {   
 710:./Drivers/STM32F1xx_HAL_Driver/Src/stm32f1xx_hal_rtc.c ****     assert_param(IS_RTC_YEAR(sDate->Year));
 711:./Drivers/STM32F1xx_HAL_Driver/Src/stm32f1xx_hal_rtc.c ****     assert_param(IS_RTC_MONTH(sDate->Month));
 712:./Drivers/STM32F1xx_HAL_Driver/Src/stm32f1xx_hal_rtc.c ****     assert_param(IS_RTC_DATE(sDate->Date)); 
 713:./Drivers/STM32F1xx_HAL_Driver/Src/stm32f1xx_hal_rtc.c **** 
 714:./Drivers/STM32F1xx_HAL_Driver/Src/stm32f1xx_hal_rtc.c ****     /* Change the current date */
 715:./Drivers/STM32F1xx_HAL_Driver/Src/stm32f1xx_hal_rtc.c ****     hrtc->DateToUpdate.Year  = sDate->Year;
 716:./Drivers/STM32F1xx_HAL_Driver/Src/stm32f1xx_hal_rtc.c ****     hrtc->DateToUpdate.Month = sDate->Month;
ARM GAS  /tmp/ccTzASZE.s 			page 14


 717:./Drivers/STM32F1xx_HAL_Driver/Src/stm32f1xx_hal_rtc.c ****     hrtc->DateToUpdate.Date  = sDate->Date;
 718:./Drivers/STM32F1xx_HAL_Driver/Src/stm32f1xx_hal_rtc.c ****   }
 719:./Drivers/STM32F1xx_HAL_Driver/Src/stm32f1xx_hal_rtc.c ****   else
 720:./Drivers/STM32F1xx_HAL_Driver/Src/stm32f1xx_hal_rtc.c ****   {   
 721:./Drivers/STM32F1xx_HAL_Driver/Src/stm32f1xx_hal_rtc.c ****     assert_param(IS_RTC_YEAR(RTC_Bcd2ToByte(sDate->Year)));
 722:./Drivers/STM32F1xx_HAL_Driver/Src/stm32f1xx_hal_rtc.c ****     assert_param(IS_RTC_MONTH(RTC_Bcd2ToByte(sDate->Month)));
 723:./Drivers/STM32F1xx_HAL_Driver/Src/stm32f1xx_hal_rtc.c ****     assert_param(IS_RTC_DATE(RTC_Bcd2ToByte(sDate->Date)));
 724:./Drivers/STM32F1xx_HAL_Driver/Src/stm32f1xx_hal_rtc.c ****     
 725:./Drivers/STM32F1xx_HAL_Driver/Src/stm32f1xx_hal_rtc.c ****     /* Change the current date */
 726:./Drivers/STM32F1xx_HAL_Driver/Src/stm32f1xx_hal_rtc.c ****     hrtc->DateToUpdate.Year  = RTC_Bcd2ToByte(sDate->Year);
 727:./Drivers/STM32F1xx_HAL_Driver/Src/stm32f1xx_hal_rtc.c ****     hrtc->DateToUpdate.Month = RTC_Bcd2ToByte(sDate->Month);
 728:./Drivers/STM32F1xx_HAL_Driver/Src/stm32f1xx_hal_rtc.c ****     hrtc->DateToUpdate.Date  = RTC_Bcd2ToByte(sDate->Date);
 729:./Drivers/STM32F1xx_HAL_Driver/Src/stm32f1xx_hal_rtc.c ****   }
 730:./Drivers/STM32F1xx_HAL_Driver/Src/stm32f1xx_hal_rtc.c **** 
 731:./Drivers/STM32F1xx_HAL_Driver/Src/stm32f1xx_hal_rtc.c ****   /* WeekDay set by user can be ignored because automatically calculated */
 732:./Drivers/STM32F1xx_HAL_Driver/Src/stm32f1xx_hal_rtc.c ****   hrtc->DateToUpdate.WeekDay = RTC_WeekDayNum(hrtc->DateToUpdate.Year, hrtc->DateToUpdate.Month, hr
 733:./Drivers/STM32F1xx_HAL_Driver/Src/stm32f1xx_hal_rtc.c ****   sDate->WeekDay = hrtc->DateToUpdate.WeekDay;
 734:./Drivers/STM32F1xx_HAL_Driver/Src/stm32f1xx_hal_rtc.c **** 
 735:./Drivers/STM32F1xx_HAL_Driver/Src/stm32f1xx_hal_rtc.c ****   /* Reset time to be aligned on the same day */
 736:./Drivers/STM32F1xx_HAL_Driver/Src/stm32f1xx_hal_rtc.c ****   /* Read the time counter*/
 737:./Drivers/STM32F1xx_HAL_Driver/Src/stm32f1xx_hal_rtc.c ****   counter_time = RTC_ReadTimeCounter(hrtc);
 738:./Drivers/STM32F1xx_HAL_Driver/Src/stm32f1xx_hal_rtc.c **** 
 739:./Drivers/STM32F1xx_HAL_Driver/Src/stm32f1xx_hal_rtc.c ****   /* Fill the structure fields with the read parameters */
 740:./Drivers/STM32F1xx_HAL_Driver/Src/stm32f1xx_hal_rtc.c ****   hours = counter_time / 3600U;
 741:./Drivers/STM32F1xx_HAL_Driver/Src/stm32f1xx_hal_rtc.c ****   if (hours > 24U)
 742:./Drivers/STM32F1xx_HAL_Driver/Src/stm32f1xx_hal_rtc.c ****   {
 743:./Drivers/STM32F1xx_HAL_Driver/Src/stm32f1xx_hal_rtc.c ****     /* Set updated time in decreasing counter by number of days elapsed */
 744:./Drivers/STM32F1xx_HAL_Driver/Src/stm32f1xx_hal_rtc.c ****     counter_time -= ((hours / 24U) * 24U * 3600U);
 745:./Drivers/STM32F1xx_HAL_Driver/Src/stm32f1xx_hal_rtc.c ****     /* Write time counter in RTC registers */
 746:./Drivers/STM32F1xx_HAL_Driver/Src/stm32f1xx_hal_rtc.c ****     if (RTC_WriteTimeCounter(hrtc, counter_time) != HAL_OK)
 747:./Drivers/STM32F1xx_HAL_Driver/Src/stm32f1xx_hal_rtc.c ****     {
 748:./Drivers/STM32F1xx_HAL_Driver/Src/stm32f1xx_hal_rtc.c ****       /* Set RTC state */
 749:./Drivers/STM32F1xx_HAL_Driver/Src/stm32f1xx_hal_rtc.c ****       hrtc->State = HAL_RTC_STATE_ERROR;
 750:./Drivers/STM32F1xx_HAL_Driver/Src/stm32f1xx_hal_rtc.c ****       
 751:./Drivers/STM32F1xx_HAL_Driver/Src/stm32f1xx_hal_rtc.c ****       /* Process Unlocked */ 
 752:./Drivers/STM32F1xx_HAL_Driver/Src/stm32f1xx_hal_rtc.c ****       __HAL_UNLOCK(hrtc);
 753:./Drivers/STM32F1xx_HAL_Driver/Src/stm32f1xx_hal_rtc.c ****       
 754:./Drivers/STM32F1xx_HAL_Driver/Src/stm32f1xx_hal_rtc.c ****       return HAL_ERROR;
 755:./Drivers/STM32F1xx_HAL_Driver/Src/stm32f1xx_hal_rtc.c ****     }
 756:./Drivers/STM32F1xx_HAL_Driver/Src/stm32f1xx_hal_rtc.c **** 
 757:./Drivers/STM32F1xx_HAL_Driver/Src/stm32f1xx_hal_rtc.c ****     /* Read current Alarm counter in RTC registers */
 758:./Drivers/STM32F1xx_HAL_Driver/Src/stm32f1xx_hal_rtc.c ****     counter_alarm = RTC_ReadAlarmCounter(hrtc);
 759:./Drivers/STM32F1xx_HAL_Driver/Src/stm32f1xx_hal_rtc.c **** 
 760:./Drivers/STM32F1xx_HAL_Driver/Src/stm32f1xx_hal_rtc.c ****     /* Set again alarm to match with new time if enabled */
 761:./Drivers/STM32F1xx_HAL_Driver/Src/stm32f1xx_hal_rtc.c ****     if (counter_alarm != RTC_ALARM_RESETVALUE)
 762:./Drivers/STM32F1xx_HAL_Driver/Src/stm32f1xx_hal_rtc.c ****     {
 763:./Drivers/STM32F1xx_HAL_Driver/Src/stm32f1xx_hal_rtc.c ****       if(counter_alarm < counter_time)
 764:./Drivers/STM32F1xx_HAL_Driver/Src/stm32f1xx_hal_rtc.c ****       {
 765:./Drivers/STM32F1xx_HAL_Driver/Src/stm32f1xx_hal_rtc.c ****         /* Add 1 day to alarm counter*/
 766:./Drivers/STM32F1xx_HAL_Driver/Src/stm32f1xx_hal_rtc.c ****         counter_alarm += (uint32_t)(24U * 3600U);
 767:./Drivers/STM32F1xx_HAL_Driver/Src/stm32f1xx_hal_rtc.c ****         
 768:./Drivers/STM32F1xx_HAL_Driver/Src/stm32f1xx_hal_rtc.c ****         /* Write new Alarm counter in RTC registers */
 769:./Drivers/STM32F1xx_HAL_Driver/Src/stm32f1xx_hal_rtc.c ****         if (RTC_WriteAlarmCounter(hrtc, counter_alarm) != HAL_OK)
 770:./Drivers/STM32F1xx_HAL_Driver/Src/stm32f1xx_hal_rtc.c ****         {
 771:./Drivers/STM32F1xx_HAL_Driver/Src/stm32f1xx_hal_rtc.c ****           /* Set RTC state */
 772:./Drivers/STM32F1xx_HAL_Driver/Src/stm32f1xx_hal_rtc.c ****           hrtc->State = HAL_RTC_STATE_ERROR;
 773:./Drivers/STM32F1xx_HAL_Driver/Src/stm32f1xx_hal_rtc.c ****           
ARM GAS  /tmp/ccTzASZE.s 			page 15


 774:./Drivers/STM32F1xx_HAL_Driver/Src/stm32f1xx_hal_rtc.c ****           /* Process Unlocked */ 
 775:./Drivers/STM32F1xx_HAL_Driver/Src/stm32f1xx_hal_rtc.c ****           __HAL_UNLOCK(hrtc);
 776:./Drivers/STM32F1xx_HAL_Driver/Src/stm32f1xx_hal_rtc.c ****           
 777:./Drivers/STM32F1xx_HAL_Driver/Src/stm32f1xx_hal_rtc.c ****           return HAL_ERROR;
 778:./Drivers/STM32F1xx_HAL_Driver/Src/stm32f1xx_hal_rtc.c ****         }
 779:./Drivers/STM32F1xx_HAL_Driver/Src/stm32f1xx_hal_rtc.c ****       }
 780:./Drivers/STM32F1xx_HAL_Driver/Src/stm32f1xx_hal_rtc.c ****     }
 781:./Drivers/STM32F1xx_HAL_Driver/Src/stm32f1xx_hal_rtc.c ****     
 782:./Drivers/STM32F1xx_HAL_Driver/Src/stm32f1xx_hal_rtc.c **** 
 783:./Drivers/STM32F1xx_HAL_Driver/Src/stm32f1xx_hal_rtc.c ****   }
 784:./Drivers/STM32F1xx_HAL_Driver/Src/stm32f1xx_hal_rtc.c **** 
 785:./Drivers/STM32F1xx_HAL_Driver/Src/stm32f1xx_hal_rtc.c ****   hrtc->State = HAL_RTC_STATE_READY ;
 786:./Drivers/STM32F1xx_HAL_Driver/Src/stm32f1xx_hal_rtc.c ****   
 787:./Drivers/STM32F1xx_HAL_Driver/Src/stm32f1xx_hal_rtc.c ****   /* Process Unlocked */ 
 788:./Drivers/STM32F1xx_HAL_Driver/Src/stm32f1xx_hal_rtc.c ****   __HAL_UNLOCK(hrtc);
 789:./Drivers/STM32F1xx_HAL_Driver/Src/stm32f1xx_hal_rtc.c ****   
 790:./Drivers/STM32F1xx_HAL_Driver/Src/stm32f1xx_hal_rtc.c ****   return HAL_OK;    
 791:./Drivers/STM32F1xx_HAL_Driver/Src/stm32f1xx_hal_rtc.c **** }
 792:./Drivers/STM32F1xx_HAL_Driver/Src/stm32f1xx_hal_rtc.c **** 
 793:./Drivers/STM32F1xx_HAL_Driver/Src/stm32f1xx_hal_rtc.c **** /**
 794:./Drivers/STM32F1xx_HAL_Driver/Src/stm32f1xx_hal_rtc.c ****   * @brief  Gets RTC current date.
 795:./Drivers/STM32F1xx_HAL_Driver/Src/stm32f1xx_hal_rtc.c ****   * @param  hrtc   pointer to a RTC_HandleTypeDef structure that contains
 796:./Drivers/STM32F1xx_HAL_Driver/Src/stm32f1xx_hal_rtc.c ****   *                the configuration information for RTC.
 797:./Drivers/STM32F1xx_HAL_Driver/Src/stm32f1xx_hal_rtc.c ****   * @param  sDate: Pointer to Date structure
 798:./Drivers/STM32F1xx_HAL_Driver/Src/stm32f1xx_hal_rtc.c ****   * @param  Format: Specifies the format of the entered parameters.
 799:./Drivers/STM32F1xx_HAL_Driver/Src/stm32f1xx_hal_rtc.c ****   *          This parameter can be one of the following values:
 800:./Drivers/STM32F1xx_HAL_Driver/Src/stm32f1xx_hal_rtc.c ****   *            @arg RTC_FORMAT_BIN:  Binary data format 
 801:./Drivers/STM32F1xx_HAL_Driver/Src/stm32f1xx_hal_rtc.c ****   *            @arg RTC_FORMAT_BCD:  BCD data format
 802:./Drivers/STM32F1xx_HAL_Driver/Src/stm32f1xx_hal_rtc.c ****   * @retval HAL status
 803:./Drivers/STM32F1xx_HAL_Driver/Src/stm32f1xx_hal_rtc.c ****   */
 804:./Drivers/STM32F1xx_HAL_Driver/Src/stm32f1xx_hal_rtc.c **** HAL_StatusTypeDef HAL_RTC_GetDate(RTC_HandleTypeDef *hrtc, RTC_DateTypeDef *sDate, uint32_t Format)
 805:./Drivers/STM32F1xx_HAL_Driver/Src/stm32f1xx_hal_rtc.c **** {
 806:./Drivers/STM32F1xx_HAL_Driver/Src/stm32f1xx_hal_rtc.c ****   RTC_TimeTypeDef stime = {0U};
 807:./Drivers/STM32F1xx_HAL_Driver/Src/stm32f1xx_hal_rtc.c ****   
 808:./Drivers/STM32F1xx_HAL_Driver/Src/stm32f1xx_hal_rtc.c ****   /* Check input parameters */
 809:./Drivers/STM32F1xx_HAL_Driver/Src/stm32f1xx_hal_rtc.c ****   if((hrtc == NULL) || (sDate == NULL))
 810:./Drivers/STM32F1xx_HAL_Driver/Src/stm32f1xx_hal_rtc.c ****   {
 811:./Drivers/STM32F1xx_HAL_Driver/Src/stm32f1xx_hal_rtc.c ****      return HAL_ERROR;
 812:./Drivers/STM32F1xx_HAL_Driver/Src/stm32f1xx_hal_rtc.c ****   }
 813:./Drivers/STM32F1xx_HAL_Driver/Src/stm32f1xx_hal_rtc.c ****   
 814:./Drivers/STM32F1xx_HAL_Driver/Src/stm32f1xx_hal_rtc.c ****   /* Check the parameters */
 815:./Drivers/STM32F1xx_HAL_Driver/Src/stm32f1xx_hal_rtc.c ****   assert_param(IS_RTC_FORMAT(Format));
 816:./Drivers/STM32F1xx_HAL_Driver/Src/stm32f1xx_hal_rtc.c ****   
 817:./Drivers/STM32F1xx_HAL_Driver/Src/stm32f1xx_hal_rtc.c ****   /* Call HAL_RTC_GetTime function to update date if counter higher than 24 hours */
 818:./Drivers/STM32F1xx_HAL_Driver/Src/stm32f1xx_hal_rtc.c ****   if (HAL_RTC_GetTime(hrtc, &stime, RTC_FORMAT_BIN) != HAL_OK)
 819:./Drivers/STM32F1xx_HAL_Driver/Src/stm32f1xx_hal_rtc.c ****   {
 820:./Drivers/STM32F1xx_HAL_Driver/Src/stm32f1xx_hal_rtc.c ****     return HAL_ERROR;
 821:./Drivers/STM32F1xx_HAL_Driver/Src/stm32f1xx_hal_rtc.c ****   }
 822:./Drivers/STM32F1xx_HAL_Driver/Src/stm32f1xx_hal_rtc.c **** 
 823:./Drivers/STM32F1xx_HAL_Driver/Src/stm32f1xx_hal_rtc.c ****   /* Fill the structure fields with the read parameters */
 824:./Drivers/STM32F1xx_HAL_Driver/Src/stm32f1xx_hal_rtc.c ****   sDate->WeekDay  = hrtc->DateToUpdate.WeekDay;
 825:./Drivers/STM32F1xx_HAL_Driver/Src/stm32f1xx_hal_rtc.c ****   sDate->Year     = hrtc->DateToUpdate.Year;
 826:./Drivers/STM32F1xx_HAL_Driver/Src/stm32f1xx_hal_rtc.c ****   sDate->Month    = hrtc->DateToUpdate.Month;
 827:./Drivers/STM32F1xx_HAL_Driver/Src/stm32f1xx_hal_rtc.c ****   sDate->Date     = hrtc->DateToUpdate.Date;
 828:./Drivers/STM32F1xx_HAL_Driver/Src/stm32f1xx_hal_rtc.c **** 
 829:./Drivers/STM32F1xx_HAL_Driver/Src/stm32f1xx_hal_rtc.c ****   /* Check the input parameters format */
 830:./Drivers/STM32F1xx_HAL_Driver/Src/stm32f1xx_hal_rtc.c ****   if(Format != RTC_FORMAT_BIN)
ARM GAS  /tmp/ccTzASZE.s 			page 16


 831:./Drivers/STM32F1xx_HAL_Driver/Src/stm32f1xx_hal_rtc.c ****   {    
 832:./Drivers/STM32F1xx_HAL_Driver/Src/stm32f1xx_hal_rtc.c ****     /* Convert the date structure parameters to BCD format */
 833:./Drivers/STM32F1xx_HAL_Driver/Src/stm32f1xx_hal_rtc.c ****     sDate->Year   = (uint8_t)RTC_ByteToBcd2(sDate->Year);
 834:./Drivers/STM32F1xx_HAL_Driver/Src/stm32f1xx_hal_rtc.c ****     sDate->Month  = (uint8_t)RTC_ByteToBcd2(sDate->Month);
 835:./Drivers/STM32F1xx_HAL_Driver/Src/stm32f1xx_hal_rtc.c ****     sDate->Date   = (uint8_t)RTC_ByteToBcd2(sDate->Date);  
 836:./Drivers/STM32F1xx_HAL_Driver/Src/stm32f1xx_hal_rtc.c ****   }
 837:./Drivers/STM32F1xx_HAL_Driver/Src/stm32f1xx_hal_rtc.c ****   return HAL_OK;
 838:./Drivers/STM32F1xx_HAL_Driver/Src/stm32f1xx_hal_rtc.c **** }
 839:./Drivers/STM32F1xx_HAL_Driver/Src/stm32f1xx_hal_rtc.c **** 
 840:./Drivers/STM32F1xx_HAL_Driver/Src/stm32f1xx_hal_rtc.c **** /**
 841:./Drivers/STM32F1xx_HAL_Driver/Src/stm32f1xx_hal_rtc.c ****   * @}
 842:./Drivers/STM32F1xx_HAL_Driver/Src/stm32f1xx_hal_rtc.c ****   */
 843:./Drivers/STM32F1xx_HAL_Driver/Src/stm32f1xx_hal_rtc.c **** 
 844:./Drivers/STM32F1xx_HAL_Driver/Src/stm32f1xx_hal_rtc.c **** /** @defgroup RTC_Exported_Functions_Group3 Alarm functions
 845:./Drivers/STM32F1xx_HAL_Driver/Src/stm32f1xx_hal_rtc.c ****  *  @brief   RTC Alarm functions
 846:./Drivers/STM32F1xx_HAL_Driver/Src/stm32f1xx_hal_rtc.c ****  *
 847:./Drivers/STM32F1xx_HAL_Driver/Src/stm32f1xx_hal_rtc.c **** @verbatim   
 848:./Drivers/STM32F1xx_HAL_Driver/Src/stm32f1xx_hal_rtc.c ****  ===============================================================================
 849:./Drivers/STM32F1xx_HAL_Driver/Src/stm32f1xx_hal_rtc.c ****                  ##### RTC Alarm functions #####
 850:./Drivers/STM32F1xx_HAL_Driver/Src/stm32f1xx_hal_rtc.c ****  ===============================================================================  
 851:./Drivers/STM32F1xx_HAL_Driver/Src/stm32f1xx_hal_rtc.c ****  
 852:./Drivers/STM32F1xx_HAL_Driver/Src/stm32f1xx_hal_rtc.c ****  [..] This section provides functions allowing to configure Alarm feature
 853:./Drivers/STM32F1xx_HAL_Driver/Src/stm32f1xx_hal_rtc.c **** 
 854:./Drivers/STM32F1xx_HAL_Driver/Src/stm32f1xx_hal_rtc.c **** @endverbatim
 855:./Drivers/STM32F1xx_HAL_Driver/Src/stm32f1xx_hal_rtc.c ****   * @{
 856:./Drivers/STM32F1xx_HAL_Driver/Src/stm32f1xx_hal_rtc.c ****   */
 857:./Drivers/STM32F1xx_HAL_Driver/Src/stm32f1xx_hal_rtc.c **** 
 858:./Drivers/STM32F1xx_HAL_Driver/Src/stm32f1xx_hal_rtc.c **** /**
 859:./Drivers/STM32F1xx_HAL_Driver/Src/stm32f1xx_hal_rtc.c ****   * @brief  Sets the specified RTC Alarm.
 860:./Drivers/STM32F1xx_HAL_Driver/Src/stm32f1xx_hal_rtc.c ****   * @param  hrtc   pointer to a RTC_HandleTypeDef structure that contains
 861:./Drivers/STM32F1xx_HAL_Driver/Src/stm32f1xx_hal_rtc.c ****   *                the configuration information for RTC.
 862:./Drivers/STM32F1xx_HAL_Driver/Src/stm32f1xx_hal_rtc.c ****   * @param  sAlarm: Pointer to Alarm structure
 863:./Drivers/STM32F1xx_HAL_Driver/Src/stm32f1xx_hal_rtc.c ****   * @param  Format: Specifies the format of the entered parameters.
 864:./Drivers/STM32F1xx_HAL_Driver/Src/stm32f1xx_hal_rtc.c ****   *          This parameter can be one of the following values:
 865:./Drivers/STM32F1xx_HAL_Driver/Src/stm32f1xx_hal_rtc.c ****   *             @arg RTC_FORMAT_BIN: Binary data format 
 866:./Drivers/STM32F1xx_HAL_Driver/Src/stm32f1xx_hal_rtc.c ****   *             @arg RTC_FORMAT_BCD: BCD data format
 867:./Drivers/STM32F1xx_HAL_Driver/Src/stm32f1xx_hal_rtc.c ****   * @retval HAL status
 868:./Drivers/STM32F1xx_HAL_Driver/Src/stm32f1xx_hal_rtc.c ****   */
 869:./Drivers/STM32F1xx_HAL_Driver/Src/stm32f1xx_hal_rtc.c **** HAL_StatusTypeDef HAL_RTC_SetAlarm(RTC_HandleTypeDef *hrtc, RTC_AlarmTypeDef *sAlarm, uint32_t Form
 870:./Drivers/STM32F1xx_HAL_Driver/Src/stm32f1xx_hal_rtc.c **** {
 871:./Drivers/STM32F1xx_HAL_Driver/Src/stm32f1xx_hal_rtc.c ****   uint32_t counter_alarm = 0U, counter_time;
 872:./Drivers/STM32F1xx_HAL_Driver/Src/stm32f1xx_hal_rtc.c ****   RTC_TimeTypeDef stime = {0U};
 873:./Drivers/STM32F1xx_HAL_Driver/Src/stm32f1xx_hal_rtc.c ****   
 874:./Drivers/STM32F1xx_HAL_Driver/Src/stm32f1xx_hal_rtc.c ****   /* Check input parameters */
 875:./Drivers/STM32F1xx_HAL_Driver/Src/stm32f1xx_hal_rtc.c ****   if((hrtc == NULL) || (sAlarm == NULL))
 876:./Drivers/STM32F1xx_HAL_Driver/Src/stm32f1xx_hal_rtc.c ****   {
 877:./Drivers/STM32F1xx_HAL_Driver/Src/stm32f1xx_hal_rtc.c ****      return HAL_ERROR;
 878:./Drivers/STM32F1xx_HAL_Driver/Src/stm32f1xx_hal_rtc.c ****   }
 879:./Drivers/STM32F1xx_HAL_Driver/Src/stm32f1xx_hal_rtc.c ****   
 880:./Drivers/STM32F1xx_HAL_Driver/Src/stm32f1xx_hal_rtc.c ****   /* Check the parameters */
 881:./Drivers/STM32F1xx_HAL_Driver/Src/stm32f1xx_hal_rtc.c ****   assert_param(IS_RTC_FORMAT(Format));
 882:./Drivers/STM32F1xx_HAL_Driver/Src/stm32f1xx_hal_rtc.c ****   assert_param(IS_RTC_ALARM(sAlarm->Alarm));
 883:./Drivers/STM32F1xx_HAL_Driver/Src/stm32f1xx_hal_rtc.c **** 
 884:./Drivers/STM32F1xx_HAL_Driver/Src/stm32f1xx_hal_rtc.c ****   /* Process Locked */ 
 885:./Drivers/STM32F1xx_HAL_Driver/Src/stm32f1xx_hal_rtc.c ****   __HAL_LOCK(hrtc);
 886:./Drivers/STM32F1xx_HAL_Driver/Src/stm32f1xx_hal_rtc.c ****   
 887:./Drivers/STM32F1xx_HAL_Driver/Src/stm32f1xx_hal_rtc.c ****   hrtc->State = HAL_RTC_STATE_BUSY;
ARM GAS  /tmp/ccTzASZE.s 			page 17


 888:./Drivers/STM32F1xx_HAL_Driver/Src/stm32f1xx_hal_rtc.c ****   
 889:./Drivers/STM32F1xx_HAL_Driver/Src/stm32f1xx_hal_rtc.c ****   /* Call HAL_RTC_GetTime function to update date if counter higher than 24 hours */
 890:./Drivers/STM32F1xx_HAL_Driver/Src/stm32f1xx_hal_rtc.c ****   if (HAL_RTC_GetTime(hrtc, &stime, RTC_FORMAT_BIN) != HAL_OK)
 891:./Drivers/STM32F1xx_HAL_Driver/Src/stm32f1xx_hal_rtc.c ****   {
 892:./Drivers/STM32F1xx_HAL_Driver/Src/stm32f1xx_hal_rtc.c ****     return HAL_ERROR;
 893:./Drivers/STM32F1xx_HAL_Driver/Src/stm32f1xx_hal_rtc.c ****   }
 894:./Drivers/STM32F1xx_HAL_Driver/Src/stm32f1xx_hal_rtc.c **** 
 895:./Drivers/STM32F1xx_HAL_Driver/Src/stm32f1xx_hal_rtc.c ****   /* Convert time in seconds */
 896:./Drivers/STM32F1xx_HAL_Driver/Src/stm32f1xx_hal_rtc.c ****   counter_time = (uint32_t)(((uint32_t)stime.Hours * 3600U) + \
 897:./Drivers/STM32F1xx_HAL_Driver/Src/stm32f1xx_hal_rtc.c ****                       ((uint32_t)stime.Minutes * 60U) + \
 898:./Drivers/STM32F1xx_HAL_Driver/Src/stm32f1xx_hal_rtc.c ****                       ((uint32_t)stime.Seconds));  
 899:./Drivers/STM32F1xx_HAL_Driver/Src/stm32f1xx_hal_rtc.c **** 
 900:./Drivers/STM32F1xx_HAL_Driver/Src/stm32f1xx_hal_rtc.c ****   if(Format == RTC_FORMAT_BIN)
 901:./Drivers/STM32F1xx_HAL_Driver/Src/stm32f1xx_hal_rtc.c ****   {
 902:./Drivers/STM32F1xx_HAL_Driver/Src/stm32f1xx_hal_rtc.c ****     assert_param(IS_RTC_HOUR24(sAlarm->AlarmTime.Hours));
 903:./Drivers/STM32F1xx_HAL_Driver/Src/stm32f1xx_hal_rtc.c ****     assert_param(IS_RTC_MINUTES(sAlarm->AlarmTime.Minutes));
 904:./Drivers/STM32F1xx_HAL_Driver/Src/stm32f1xx_hal_rtc.c ****     assert_param(IS_RTC_SECONDS(sAlarm->AlarmTime.Seconds));
 905:./Drivers/STM32F1xx_HAL_Driver/Src/stm32f1xx_hal_rtc.c ****     
 906:./Drivers/STM32F1xx_HAL_Driver/Src/stm32f1xx_hal_rtc.c ****     counter_alarm = (uint32_t)(((uint32_t)sAlarm->AlarmTime.Hours * 3600U) + \
 907:./Drivers/STM32F1xx_HAL_Driver/Src/stm32f1xx_hal_rtc.c ****                         ((uint32_t)sAlarm->AlarmTime.Minutes * 60U) + \
 908:./Drivers/STM32F1xx_HAL_Driver/Src/stm32f1xx_hal_rtc.c ****                         ((uint32_t)sAlarm->AlarmTime.Seconds));  
 909:./Drivers/STM32F1xx_HAL_Driver/Src/stm32f1xx_hal_rtc.c ****   }
 910:./Drivers/STM32F1xx_HAL_Driver/Src/stm32f1xx_hal_rtc.c ****   else
 911:./Drivers/STM32F1xx_HAL_Driver/Src/stm32f1xx_hal_rtc.c ****   {
 912:./Drivers/STM32F1xx_HAL_Driver/Src/stm32f1xx_hal_rtc.c ****     assert_param(IS_RTC_HOUR24(RTC_Bcd2ToByte(sAlarm->AlarmTime.Hours)));
 913:./Drivers/STM32F1xx_HAL_Driver/Src/stm32f1xx_hal_rtc.c ****     assert_param(IS_RTC_MINUTES(RTC_Bcd2ToByte(sAlarm->AlarmTime.Minutes)));
 914:./Drivers/STM32F1xx_HAL_Driver/Src/stm32f1xx_hal_rtc.c ****     assert_param(IS_RTC_SECONDS(RTC_Bcd2ToByte(sAlarm->AlarmTime.Seconds)));
 915:./Drivers/STM32F1xx_HAL_Driver/Src/stm32f1xx_hal_rtc.c ****     
 916:./Drivers/STM32F1xx_HAL_Driver/Src/stm32f1xx_hal_rtc.c ****     counter_alarm = (((uint32_t)(RTC_Bcd2ToByte(sAlarm->AlarmTime.Hours)) * 3600U) + \
 917:./Drivers/STM32F1xx_HAL_Driver/Src/stm32f1xx_hal_rtc.c ****               ((uint32_t)(RTC_Bcd2ToByte(sAlarm->AlarmTime.Minutes)) * 60U) + \
 918:./Drivers/STM32F1xx_HAL_Driver/Src/stm32f1xx_hal_rtc.c ****               ((uint32_t)RTC_Bcd2ToByte(sAlarm->AlarmTime.Seconds)));   
 919:./Drivers/STM32F1xx_HAL_Driver/Src/stm32f1xx_hal_rtc.c ****   }
 920:./Drivers/STM32F1xx_HAL_Driver/Src/stm32f1xx_hal_rtc.c **** 
 921:./Drivers/STM32F1xx_HAL_Driver/Src/stm32f1xx_hal_rtc.c ****   /* Check that requested alarm should expire in the same day (otherwise add 1 day) */
 922:./Drivers/STM32F1xx_HAL_Driver/Src/stm32f1xx_hal_rtc.c ****   if (counter_alarm < counter_time)
 923:./Drivers/STM32F1xx_HAL_Driver/Src/stm32f1xx_hal_rtc.c ****   {
 924:./Drivers/STM32F1xx_HAL_Driver/Src/stm32f1xx_hal_rtc.c ****     /* Add 1 day to alarm counter*/
 925:./Drivers/STM32F1xx_HAL_Driver/Src/stm32f1xx_hal_rtc.c ****     counter_alarm += (uint32_t)(24U * 3600U);
 926:./Drivers/STM32F1xx_HAL_Driver/Src/stm32f1xx_hal_rtc.c ****   }
 927:./Drivers/STM32F1xx_HAL_Driver/Src/stm32f1xx_hal_rtc.c **** 
 928:./Drivers/STM32F1xx_HAL_Driver/Src/stm32f1xx_hal_rtc.c ****   /* Write Alarm counter in RTC registers */
 929:./Drivers/STM32F1xx_HAL_Driver/Src/stm32f1xx_hal_rtc.c ****   if (RTC_WriteAlarmCounter(hrtc, counter_alarm) != HAL_OK)
 930:./Drivers/STM32F1xx_HAL_Driver/Src/stm32f1xx_hal_rtc.c ****   {
 931:./Drivers/STM32F1xx_HAL_Driver/Src/stm32f1xx_hal_rtc.c ****     /* Set RTC state */
 932:./Drivers/STM32F1xx_HAL_Driver/Src/stm32f1xx_hal_rtc.c ****     hrtc->State = HAL_RTC_STATE_ERROR;
 933:./Drivers/STM32F1xx_HAL_Driver/Src/stm32f1xx_hal_rtc.c ****     
 934:./Drivers/STM32F1xx_HAL_Driver/Src/stm32f1xx_hal_rtc.c ****     /* Process Unlocked */ 
 935:./Drivers/STM32F1xx_HAL_Driver/Src/stm32f1xx_hal_rtc.c ****     __HAL_UNLOCK(hrtc);
 936:./Drivers/STM32F1xx_HAL_Driver/Src/stm32f1xx_hal_rtc.c ****     
 937:./Drivers/STM32F1xx_HAL_Driver/Src/stm32f1xx_hal_rtc.c ****     return HAL_ERROR;
 938:./Drivers/STM32F1xx_HAL_Driver/Src/stm32f1xx_hal_rtc.c ****   }
 939:./Drivers/STM32F1xx_HAL_Driver/Src/stm32f1xx_hal_rtc.c ****   else
 940:./Drivers/STM32F1xx_HAL_Driver/Src/stm32f1xx_hal_rtc.c ****   {
 941:./Drivers/STM32F1xx_HAL_Driver/Src/stm32f1xx_hal_rtc.c ****     hrtc->State = HAL_RTC_STATE_READY;
 942:./Drivers/STM32F1xx_HAL_Driver/Src/stm32f1xx_hal_rtc.c ****   
 943:./Drivers/STM32F1xx_HAL_Driver/Src/stm32f1xx_hal_rtc.c ****    __HAL_UNLOCK(hrtc); 
 944:./Drivers/STM32F1xx_HAL_Driver/Src/stm32f1xx_hal_rtc.c ****      
ARM GAS  /tmp/ccTzASZE.s 			page 18


 945:./Drivers/STM32F1xx_HAL_Driver/Src/stm32f1xx_hal_rtc.c ****    return HAL_OK;
 946:./Drivers/STM32F1xx_HAL_Driver/Src/stm32f1xx_hal_rtc.c ****   }
 947:./Drivers/STM32F1xx_HAL_Driver/Src/stm32f1xx_hal_rtc.c **** }
 948:./Drivers/STM32F1xx_HAL_Driver/Src/stm32f1xx_hal_rtc.c **** 
 949:./Drivers/STM32F1xx_HAL_Driver/Src/stm32f1xx_hal_rtc.c **** /**
 950:./Drivers/STM32F1xx_HAL_Driver/Src/stm32f1xx_hal_rtc.c ****   * @brief  Sets the specified RTC Alarm with Interrupt 
 951:./Drivers/STM32F1xx_HAL_Driver/Src/stm32f1xx_hal_rtc.c ****   * @param  hrtc   pointer to a RTC_HandleTypeDef structure that contains
 952:./Drivers/STM32F1xx_HAL_Driver/Src/stm32f1xx_hal_rtc.c ****   *                the configuration information for RTC.
 953:./Drivers/STM32F1xx_HAL_Driver/Src/stm32f1xx_hal_rtc.c ****   * @param  sAlarm: Pointer to Alarm structure
 954:./Drivers/STM32F1xx_HAL_Driver/Src/stm32f1xx_hal_rtc.c ****   * @param  Format: Specifies the format of the entered parameters.
 955:./Drivers/STM32F1xx_HAL_Driver/Src/stm32f1xx_hal_rtc.c ****   *          This parameter can be one of the following values:
 956:./Drivers/STM32F1xx_HAL_Driver/Src/stm32f1xx_hal_rtc.c ****   *             @arg RTC_FORMAT_BIN: Binary data format 
 957:./Drivers/STM32F1xx_HAL_Driver/Src/stm32f1xx_hal_rtc.c ****   *             @arg RTC_FORMAT_BCD: BCD data format
 958:./Drivers/STM32F1xx_HAL_Driver/Src/stm32f1xx_hal_rtc.c ****   * @note   The HAL_RTC_SetTime() must be called before enabling the Alarm feature.   
 959:./Drivers/STM32F1xx_HAL_Driver/Src/stm32f1xx_hal_rtc.c ****   * @retval HAL status
 960:./Drivers/STM32F1xx_HAL_Driver/Src/stm32f1xx_hal_rtc.c ****   */
 961:./Drivers/STM32F1xx_HAL_Driver/Src/stm32f1xx_hal_rtc.c **** HAL_StatusTypeDef HAL_RTC_SetAlarm_IT(RTC_HandleTypeDef *hrtc, RTC_AlarmTypeDef *sAlarm, uint32_t F
 962:./Drivers/STM32F1xx_HAL_Driver/Src/stm32f1xx_hal_rtc.c **** {
 963:./Drivers/STM32F1xx_HAL_Driver/Src/stm32f1xx_hal_rtc.c ****   uint32_t counter_alarm = 0U, counter_time;
 964:./Drivers/STM32F1xx_HAL_Driver/Src/stm32f1xx_hal_rtc.c ****   RTC_TimeTypeDef stime = {0U};
 965:./Drivers/STM32F1xx_HAL_Driver/Src/stm32f1xx_hal_rtc.c ****   
 966:./Drivers/STM32F1xx_HAL_Driver/Src/stm32f1xx_hal_rtc.c ****   /* Check input parameters */
 967:./Drivers/STM32F1xx_HAL_Driver/Src/stm32f1xx_hal_rtc.c ****   if((hrtc == NULL) || (sAlarm == NULL))
 968:./Drivers/STM32F1xx_HAL_Driver/Src/stm32f1xx_hal_rtc.c ****   {
 969:./Drivers/STM32F1xx_HAL_Driver/Src/stm32f1xx_hal_rtc.c ****      return HAL_ERROR;
 970:./Drivers/STM32F1xx_HAL_Driver/Src/stm32f1xx_hal_rtc.c ****   }
 971:./Drivers/STM32F1xx_HAL_Driver/Src/stm32f1xx_hal_rtc.c ****   
 972:./Drivers/STM32F1xx_HAL_Driver/Src/stm32f1xx_hal_rtc.c ****   /* Check the parameters */
 973:./Drivers/STM32F1xx_HAL_Driver/Src/stm32f1xx_hal_rtc.c ****   assert_param(IS_RTC_FORMAT(Format));
 974:./Drivers/STM32F1xx_HAL_Driver/Src/stm32f1xx_hal_rtc.c ****   assert_param(IS_RTC_ALARM(sAlarm->Alarm));
 975:./Drivers/STM32F1xx_HAL_Driver/Src/stm32f1xx_hal_rtc.c **** 
 976:./Drivers/STM32F1xx_HAL_Driver/Src/stm32f1xx_hal_rtc.c ****   /* Process Locked */ 
 977:./Drivers/STM32F1xx_HAL_Driver/Src/stm32f1xx_hal_rtc.c ****   __HAL_LOCK(hrtc);
 978:./Drivers/STM32F1xx_HAL_Driver/Src/stm32f1xx_hal_rtc.c ****   
 979:./Drivers/STM32F1xx_HAL_Driver/Src/stm32f1xx_hal_rtc.c ****   hrtc->State = HAL_RTC_STATE_BUSY;
 980:./Drivers/STM32F1xx_HAL_Driver/Src/stm32f1xx_hal_rtc.c ****   
 981:./Drivers/STM32F1xx_HAL_Driver/Src/stm32f1xx_hal_rtc.c ****   /* Call HAL_RTC_GetTime function to update date if counter higher than 24 hours */
 982:./Drivers/STM32F1xx_HAL_Driver/Src/stm32f1xx_hal_rtc.c ****   if (HAL_RTC_GetTime(hrtc, &stime, RTC_FORMAT_BIN) != HAL_OK)
 983:./Drivers/STM32F1xx_HAL_Driver/Src/stm32f1xx_hal_rtc.c ****   {
 984:./Drivers/STM32F1xx_HAL_Driver/Src/stm32f1xx_hal_rtc.c ****     return HAL_ERROR;
 985:./Drivers/STM32F1xx_HAL_Driver/Src/stm32f1xx_hal_rtc.c ****   }
 986:./Drivers/STM32F1xx_HAL_Driver/Src/stm32f1xx_hal_rtc.c **** 
 987:./Drivers/STM32F1xx_HAL_Driver/Src/stm32f1xx_hal_rtc.c ****   /* Convert time in seconds */
 988:./Drivers/STM32F1xx_HAL_Driver/Src/stm32f1xx_hal_rtc.c ****   counter_time = (uint32_t)(((uint32_t)stime.Hours * 3600U) + \
 989:./Drivers/STM32F1xx_HAL_Driver/Src/stm32f1xx_hal_rtc.c ****                       ((uint32_t)stime.Minutes * 60U) + \
 990:./Drivers/STM32F1xx_HAL_Driver/Src/stm32f1xx_hal_rtc.c ****                       ((uint32_t)stime.Seconds));  
 991:./Drivers/STM32F1xx_HAL_Driver/Src/stm32f1xx_hal_rtc.c **** 
 992:./Drivers/STM32F1xx_HAL_Driver/Src/stm32f1xx_hal_rtc.c ****   if(Format == RTC_FORMAT_BIN)
 993:./Drivers/STM32F1xx_HAL_Driver/Src/stm32f1xx_hal_rtc.c ****   {
 994:./Drivers/STM32F1xx_HAL_Driver/Src/stm32f1xx_hal_rtc.c ****     assert_param(IS_RTC_HOUR24(sAlarm->AlarmTime.Hours));
 995:./Drivers/STM32F1xx_HAL_Driver/Src/stm32f1xx_hal_rtc.c ****     assert_param(IS_RTC_MINUTES(sAlarm->AlarmTime.Minutes));
 996:./Drivers/STM32F1xx_HAL_Driver/Src/stm32f1xx_hal_rtc.c ****     assert_param(IS_RTC_SECONDS(sAlarm->AlarmTime.Seconds));
 997:./Drivers/STM32F1xx_HAL_Driver/Src/stm32f1xx_hal_rtc.c ****     
 998:./Drivers/STM32F1xx_HAL_Driver/Src/stm32f1xx_hal_rtc.c ****     counter_alarm = (uint32_t)(((uint32_t)sAlarm->AlarmTime.Hours * 3600U) + \
 999:./Drivers/STM32F1xx_HAL_Driver/Src/stm32f1xx_hal_rtc.c ****       ((uint32_t)sAlarm->AlarmTime.Minutes * 60U) + \
1000:./Drivers/STM32F1xx_HAL_Driver/Src/stm32f1xx_hal_rtc.c ****         ((uint32_t)sAlarm->AlarmTime.Seconds));  
1001:./Drivers/STM32F1xx_HAL_Driver/Src/stm32f1xx_hal_rtc.c ****   }
ARM GAS  /tmp/ccTzASZE.s 			page 19


1002:./Drivers/STM32F1xx_HAL_Driver/Src/stm32f1xx_hal_rtc.c ****   else
1003:./Drivers/STM32F1xx_HAL_Driver/Src/stm32f1xx_hal_rtc.c ****   {
1004:./Drivers/STM32F1xx_HAL_Driver/Src/stm32f1xx_hal_rtc.c ****     assert_param(IS_RTC_HOUR24(RTC_Bcd2ToByte(sAlarm->AlarmTime.Hours)));
1005:./Drivers/STM32F1xx_HAL_Driver/Src/stm32f1xx_hal_rtc.c ****     assert_param(IS_RTC_MINUTES(RTC_Bcd2ToByte(sAlarm->AlarmTime.Minutes)));
1006:./Drivers/STM32F1xx_HAL_Driver/Src/stm32f1xx_hal_rtc.c ****     assert_param(IS_RTC_SECONDS(RTC_Bcd2ToByte(sAlarm->AlarmTime.Seconds)));
1007:./Drivers/STM32F1xx_HAL_Driver/Src/stm32f1xx_hal_rtc.c ****     
1008:./Drivers/STM32F1xx_HAL_Driver/Src/stm32f1xx_hal_rtc.c ****     counter_alarm = (((uint32_t)(RTC_Bcd2ToByte(sAlarm->AlarmTime.Hours)) * 3600U) + \
1009:./Drivers/STM32F1xx_HAL_Driver/Src/stm32f1xx_hal_rtc.c ****                      ((uint32_t)(RTC_Bcd2ToByte(sAlarm->AlarmTime.Minutes)) * 60U) + \
1010:./Drivers/STM32F1xx_HAL_Driver/Src/stm32f1xx_hal_rtc.c ****                      ((uint32_t)RTC_Bcd2ToByte(sAlarm->AlarmTime.Seconds)));   
1011:./Drivers/STM32F1xx_HAL_Driver/Src/stm32f1xx_hal_rtc.c ****   }
1012:./Drivers/STM32F1xx_HAL_Driver/Src/stm32f1xx_hal_rtc.c ****   
1013:./Drivers/STM32F1xx_HAL_Driver/Src/stm32f1xx_hal_rtc.c ****   /* Check that requested alarm should expire in the same day (otherwise add 1 day) */
1014:./Drivers/STM32F1xx_HAL_Driver/Src/stm32f1xx_hal_rtc.c ****   if (counter_alarm < counter_time)
1015:./Drivers/STM32F1xx_HAL_Driver/Src/stm32f1xx_hal_rtc.c ****   {
1016:./Drivers/STM32F1xx_HAL_Driver/Src/stm32f1xx_hal_rtc.c ****     /* Add 1 day to alarm counter*/
1017:./Drivers/STM32F1xx_HAL_Driver/Src/stm32f1xx_hal_rtc.c ****     counter_alarm += (uint32_t)(24U * 3600U);
1018:./Drivers/STM32F1xx_HAL_Driver/Src/stm32f1xx_hal_rtc.c ****   }
1019:./Drivers/STM32F1xx_HAL_Driver/Src/stm32f1xx_hal_rtc.c **** 
1020:./Drivers/STM32F1xx_HAL_Driver/Src/stm32f1xx_hal_rtc.c ****   /* Write alarm counter in RTC registers */
1021:./Drivers/STM32F1xx_HAL_Driver/Src/stm32f1xx_hal_rtc.c ****   if (RTC_WriteAlarmCounter(hrtc, counter_alarm) != HAL_OK)
1022:./Drivers/STM32F1xx_HAL_Driver/Src/stm32f1xx_hal_rtc.c ****   {
1023:./Drivers/STM32F1xx_HAL_Driver/Src/stm32f1xx_hal_rtc.c ****     /* Set RTC state */
1024:./Drivers/STM32F1xx_HAL_Driver/Src/stm32f1xx_hal_rtc.c ****     hrtc->State = HAL_RTC_STATE_ERROR;
1025:./Drivers/STM32F1xx_HAL_Driver/Src/stm32f1xx_hal_rtc.c ****     
1026:./Drivers/STM32F1xx_HAL_Driver/Src/stm32f1xx_hal_rtc.c ****     /* Process Unlocked */ 
1027:./Drivers/STM32F1xx_HAL_Driver/Src/stm32f1xx_hal_rtc.c ****     __HAL_UNLOCK(hrtc);
1028:./Drivers/STM32F1xx_HAL_Driver/Src/stm32f1xx_hal_rtc.c ****     
1029:./Drivers/STM32F1xx_HAL_Driver/Src/stm32f1xx_hal_rtc.c ****     return HAL_ERROR;
1030:./Drivers/STM32F1xx_HAL_Driver/Src/stm32f1xx_hal_rtc.c ****   }
1031:./Drivers/STM32F1xx_HAL_Driver/Src/stm32f1xx_hal_rtc.c ****   else
1032:./Drivers/STM32F1xx_HAL_Driver/Src/stm32f1xx_hal_rtc.c ****   {
1033:./Drivers/STM32F1xx_HAL_Driver/Src/stm32f1xx_hal_rtc.c ****     /* Clear flag alarm A */
1034:./Drivers/STM32F1xx_HAL_Driver/Src/stm32f1xx_hal_rtc.c ****     __HAL_RTC_ALARM_CLEAR_FLAG(hrtc, RTC_FLAG_ALRAF);
1035:./Drivers/STM32F1xx_HAL_Driver/Src/stm32f1xx_hal_rtc.c ****     
1036:./Drivers/STM32F1xx_HAL_Driver/Src/stm32f1xx_hal_rtc.c ****     /* Configure the Alarm interrupt */
1037:./Drivers/STM32F1xx_HAL_Driver/Src/stm32f1xx_hal_rtc.c ****     __HAL_RTC_ALARM_ENABLE_IT(hrtc,RTC_IT_ALRA);
1038:./Drivers/STM32F1xx_HAL_Driver/Src/stm32f1xx_hal_rtc.c ****     
1039:./Drivers/STM32F1xx_HAL_Driver/Src/stm32f1xx_hal_rtc.c ****     /* RTC Alarm Interrupt Configuration: EXTI configuration */
1040:./Drivers/STM32F1xx_HAL_Driver/Src/stm32f1xx_hal_rtc.c ****     __HAL_RTC_ALARM_EXTI_ENABLE_IT();
1041:./Drivers/STM32F1xx_HAL_Driver/Src/stm32f1xx_hal_rtc.c ****     
1042:./Drivers/STM32F1xx_HAL_Driver/Src/stm32f1xx_hal_rtc.c ****     __HAL_RTC_ALARM_EXTI_ENABLE_RISING_EDGE();
1043:./Drivers/STM32F1xx_HAL_Driver/Src/stm32f1xx_hal_rtc.c **** 
1044:./Drivers/STM32F1xx_HAL_Driver/Src/stm32f1xx_hal_rtc.c ****     hrtc->State = HAL_RTC_STATE_READY;
1045:./Drivers/STM32F1xx_HAL_Driver/Src/stm32f1xx_hal_rtc.c ****   
1046:./Drivers/STM32F1xx_HAL_Driver/Src/stm32f1xx_hal_rtc.c ****    __HAL_UNLOCK(hrtc); 
1047:./Drivers/STM32F1xx_HAL_Driver/Src/stm32f1xx_hal_rtc.c ****      
1048:./Drivers/STM32F1xx_HAL_Driver/Src/stm32f1xx_hal_rtc.c ****    return HAL_OK;
1049:./Drivers/STM32F1xx_HAL_Driver/Src/stm32f1xx_hal_rtc.c ****   }
1050:./Drivers/STM32F1xx_HAL_Driver/Src/stm32f1xx_hal_rtc.c **** }
1051:./Drivers/STM32F1xx_HAL_Driver/Src/stm32f1xx_hal_rtc.c **** 
1052:./Drivers/STM32F1xx_HAL_Driver/Src/stm32f1xx_hal_rtc.c **** /**
1053:./Drivers/STM32F1xx_HAL_Driver/Src/stm32f1xx_hal_rtc.c ****   * @brief  Gets the RTC Alarm value and masks.
1054:./Drivers/STM32F1xx_HAL_Driver/Src/stm32f1xx_hal_rtc.c ****   * @param  hrtc   pointer to a RTC_HandleTypeDef structure that contains
1055:./Drivers/STM32F1xx_HAL_Driver/Src/stm32f1xx_hal_rtc.c ****   *                the configuration information for RTC.
1056:./Drivers/STM32F1xx_HAL_Driver/Src/stm32f1xx_hal_rtc.c ****   * @param  sAlarm: Pointer to Date structure
1057:./Drivers/STM32F1xx_HAL_Driver/Src/stm32f1xx_hal_rtc.c ****   * @param  Alarm: Specifies the Alarm.
1058:./Drivers/STM32F1xx_HAL_Driver/Src/stm32f1xx_hal_rtc.c ****   *          This parameter can be one of the following values:
ARM GAS  /tmp/ccTzASZE.s 			page 20


1059:./Drivers/STM32F1xx_HAL_Driver/Src/stm32f1xx_hal_rtc.c ****   *             @arg RTC_ALARM_A: Alarm
1060:./Drivers/STM32F1xx_HAL_Driver/Src/stm32f1xx_hal_rtc.c ****   * @param  Format: Specifies the format of the entered parameters.
1061:./Drivers/STM32F1xx_HAL_Driver/Src/stm32f1xx_hal_rtc.c ****   *          This parameter can be one of the following values:
1062:./Drivers/STM32F1xx_HAL_Driver/Src/stm32f1xx_hal_rtc.c ****   *             @arg RTC_FORMAT_BIN: Binary data format 
1063:./Drivers/STM32F1xx_HAL_Driver/Src/stm32f1xx_hal_rtc.c ****   *             @arg RTC_FORMAT_BCD: BCD data format
1064:./Drivers/STM32F1xx_HAL_Driver/Src/stm32f1xx_hal_rtc.c ****   * @retval HAL status
1065:./Drivers/STM32F1xx_HAL_Driver/Src/stm32f1xx_hal_rtc.c ****   */
1066:./Drivers/STM32F1xx_HAL_Driver/Src/stm32f1xx_hal_rtc.c **** HAL_StatusTypeDef HAL_RTC_GetAlarm(RTC_HandleTypeDef *hrtc, RTC_AlarmTypeDef *sAlarm, uint32_t Alar
1067:./Drivers/STM32F1xx_HAL_Driver/Src/stm32f1xx_hal_rtc.c **** {
1068:./Drivers/STM32F1xx_HAL_Driver/Src/stm32f1xx_hal_rtc.c ****   uint32_t counter_alarm = 0U;
1069:./Drivers/STM32F1xx_HAL_Driver/Src/stm32f1xx_hal_rtc.c **** 
1070:./Drivers/STM32F1xx_HAL_Driver/Src/stm32f1xx_hal_rtc.c ****   /* Prevent unused argument(s) compilation warning */
1071:./Drivers/STM32F1xx_HAL_Driver/Src/stm32f1xx_hal_rtc.c ****   UNUSED(Alarm);
1072:./Drivers/STM32F1xx_HAL_Driver/Src/stm32f1xx_hal_rtc.c **** 
1073:./Drivers/STM32F1xx_HAL_Driver/Src/stm32f1xx_hal_rtc.c ****   /* Check input parameters */
1074:./Drivers/STM32F1xx_HAL_Driver/Src/stm32f1xx_hal_rtc.c ****   if((hrtc == NULL) || (sAlarm == NULL))
1075:./Drivers/STM32F1xx_HAL_Driver/Src/stm32f1xx_hal_rtc.c ****   {
1076:./Drivers/STM32F1xx_HAL_Driver/Src/stm32f1xx_hal_rtc.c ****     return HAL_ERROR;
1077:./Drivers/STM32F1xx_HAL_Driver/Src/stm32f1xx_hal_rtc.c ****   }
1078:./Drivers/STM32F1xx_HAL_Driver/Src/stm32f1xx_hal_rtc.c ****   
1079:./Drivers/STM32F1xx_HAL_Driver/Src/stm32f1xx_hal_rtc.c ****   /* Check the parameters */
1080:./Drivers/STM32F1xx_HAL_Driver/Src/stm32f1xx_hal_rtc.c ****   assert_param(IS_RTC_FORMAT(Format));
1081:./Drivers/STM32F1xx_HAL_Driver/Src/stm32f1xx_hal_rtc.c ****   assert_param(IS_RTC_ALARM(Alarm));
1082:./Drivers/STM32F1xx_HAL_Driver/Src/stm32f1xx_hal_rtc.c ****   
1083:./Drivers/STM32F1xx_HAL_Driver/Src/stm32f1xx_hal_rtc.c ****   /* Read Alarm counter in RTC registers */
1084:./Drivers/STM32F1xx_HAL_Driver/Src/stm32f1xx_hal_rtc.c ****   counter_alarm = RTC_ReadAlarmCounter(hrtc);
1085:./Drivers/STM32F1xx_HAL_Driver/Src/stm32f1xx_hal_rtc.c **** 
1086:./Drivers/STM32F1xx_HAL_Driver/Src/stm32f1xx_hal_rtc.c ****   /* Fill the structure with the read parameters */
1087:./Drivers/STM32F1xx_HAL_Driver/Src/stm32f1xx_hal_rtc.c ****   /* Set hours in a day range (between 0 to 24)*/
1088:./Drivers/STM32F1xx_HAL_Driver/Src/stm32f1xx_hal_rtc.c ****   sAlarm->AlarmTime.Hours   = (uint32_t)((counter_alarm / 3600U) % 24U);
1089:./Drivers/STM32F1xx_HAL_Driver/Src/stm32f1xx_hal_rtc.c ****   sAlarm->AlarmTime.Minutes = (uint32_t)((counter_alarm % 3600U) / 60U);
1090:./Drivers/STM32F1xx_HAL_Driver/Src/stm32f1xx_hal_rtc.c ****   sAlarm->AlarmTime.Seconds = (uint32_t)((counter_alarm % 3600U) % 60U);
1091:./Drivers/STM32F1xx_HAL_Driver/Src/stm32f1xx_hal_rtc.c ****   
1092:./Drivers/STM32F1xx_HAL_Driver/Src/stm32f1xx_hal_rtc.c ****   if(Format != RTC_FORMAT_BIN)
1093:./Drivers/STM32F1xx_HAL_Driver/Src/stm32f1xx_hal_rtc.c ****   {
1094:./Drivers/STM32F1xx_HAL_Driver/Src/stm32f1xx_hal_rtc.c ****     sAlarm->AlarmTime.Hours   = RTC_ByteToBcd2(sAlarm->AlarmTime.Hours);
1095:./Drivers/STM32F1xx_HAL_Driver/Src/stm32f1xx_hal_rtc.c ****     sAlarm->AlarmTime.Minutes = RTC_ByteToBcd2(sAlarm->AlarmTime.Minutes);
1096:./Drivers/STM32F1xx_HAL_Driver/Src/stm32f1xx_hal_rtc.c ****     sAlarm->AlarmTime.Seconds = RTC_ByteToBcd2(sAlarm->AlarmTime.Seconds);
1097:./Drivers/STM32F1xx_HAL_Driver/Src/stm32f1xx_hal_rtc.c ****   }  
1098:./Drivers/STM32F1xx_HAL_Driver/Src/stm32f1xx_hal_rtc.c ****   
1099:./Drivers/STM32F1xx_HAL_Driver/Src/stm32f1xx_hal_rtc.c ****   return HAL_OK;
1100:./Drivers/STM32F1xx_HAL_Driver/Src/stm32f1xx_hal_rtc.c **** }
1101:./Drivers/STM32F1xx_HAL_Driver/Src/stm32f1xx_hal_rtc.c **** 
1102:./Drivers/STM32F1xx_HAL_Driver/Src/stm32f1xx_hal_rtc.c **** /**
1103:./Drivers/STM32F1xx_HAL_Driver/Src/stm32f1xx_hal_rtc.c ****   * @brief  Deactive the specified RTC Alarm 
1104:./Drivers/STM32F1xx_HAL_Driver/Src/stm32f1xx_hal_rtc.c ****   * @param  hrtc   pointer to a RTC_HandleTypeDef structure that contains
1105:./Drivers/STM32F1xx_HAL_Driver/Src/stm32f1xx_hal_rtc.c ****   *                the configuration information for RTC.
1106:./Drivers/STM32F1xx_HAL_Driver/Src/stm32f1xx_hal_rtc.c ****   * @param  Alarm: Specifies the Alarm.
1107:./Drivers/STM32F1xx_HAL_Driver/Src/stm32f1xx_hal_rtc.c ****   *          This parameter can be one of the following values:
1108:./Drivers/STM32F1xx_HAL_Driver/Src/stm32f1xx_hal_rtc.c ****   *            @arg RTC_ALARM_A:  AlarmA
1109:./Drivers/STM32F1xx_HAL_Driver/Src/stm32f1xx_hal_rtc.c ****   * @retval HAL status
1110:./Drivers/STM32F1xx_HAL_Driver/Src/stm32f1xx_hal_rtc.c ****   */
1111:./Drivers/STM32F1xx_HAL_Driver/Src/stm32f1xx_hal_rtc.c **** HAL_StatusTypeDef HAL_RTC_DeactivateAlarm(RTC_HandleTypeDef *hrtc, uint32_t Alarm)
1112:./Drivers/STM32F1xx_HAL_Driver/Src/stm32f1xx_hal_rtc.c **** {
1113:./Drivers/STM32F1xx_HAL_Driver/Src/stm32f1xx_hal_rtc.c ****   /* Prevent unused argument(s) compilation warning */
1114:./Drivers/STM32F1xx_HAL_Driver/Src/stm32f1xx_hal_rtc.c ****   UNUSED(Alarm);
1115:./Drivers/STM32F1xx_HAL_Driver/Src/stm32f1xx_hal_rtc.c **** 
ARM GAS  /tmp/ccTzASZE.s 			page 21


1116:./Drivers/STM32F1xx_HAL_Driver/Src/stm32f1xx_hal_rtc.c ****   /* Check the parameters */
1117:./Drivers/STM32F1xx_HAL_Driver/Src/stm32f1xx_hal_rtc.c ****   assert_param(IS_RTC_ALARM(Alarm));
1118:./Drivers/STM32F1xx_HAL_Driver/Src/stm32f1xx_hal_rtc.c ****   
1119:./Drivers/STM32F1xx_HAL_Driver/Src/stm32f1xx_hal_rtc.c ****   /* Check input parameters */
1120:./Drivers/STM32F1xx_HAL_Driver/Src/stm32f1xx_hal_rtc.c ****   if(hrtc == NULL)
1121:./Drivers/STM32F1xx_HAL_Driver/Src/stm32f1xx_hal_rtc.c ****   {
1122:./Drivers/STM32F1xx_HAL_Driver/Src/stm32f1xx_hal_rtc.c ****      return HAL_ERROR;
1123:./Drivers/STM32F1xx_HAL_Driver/Src/stm32f1xx_hal_rtc.c ****   }
1124:./Drivers/STM32F1xx_HAL_Driver/Src/stm32f1xx_hal_rtc.c ****   
1125:./Drivers/STM32F1xx_HAL_Driver/Src/stm32f1xx_hal_rtc.c ****   /* Process Locked */ 
1126:./Drivers/STM32F1xx_HAL_Driver/Src/stm32f1xx_hal_rtc.c ****   __HAL_LOCK(hrtc);
1127:./Drivers/STM32F1xx_HAL_Driver/Src/stm32f1xx_hal_rtc.c ****   
1128:./Drivers/STM32F1xx_HAL_Driver/Src/stm32f1xx_hal_rtc.c ****   hrtc->State = HAL_RTC_STATE_BUSY;
1129:./Drivers/STM32F1xx_HAL_Driver/Src/stm32f1xx_hal_rtc.c ****   
1130:./Drivers/STM32F1xx_HAL_Driver/Src/stm32f1xx_hal_rtc.c ****   /* In case of interrupt mode is used, the interrupt source must disabled */ 
1131:./Drivers/STM32F1xx_HAL_Driver/Src/stm32f1xx_hal_rtc.c ****   __HAL_RTC_ALARM_DISABLE_IT(hrtc, RTC_IT_ALRA);
1132:./Drivers/STM32F1xx_HAL_Driver/Src/stm32f1xx_hal_rtc.c ****   
1133:./Drivers/STM32F1xx_HAL_Driver/Src/stm32f1xx_hal_rtc.c ****   /* Set Initialization mode */
1134:./Drivers/STM32F1xx_HAL_Driver/Src/stm32f1xx_hal_rtc.c ****   if(RTC_EnterInitMode(hrtc) != HAL_OK)
1135:./Drivers/STM32F1xx_HAL_Driver/Src/stm32f1xx_hal_rtc.c ****   {
1136:./Drivers/STM32F1xx_HAL_Driver/Src/stm32f1xx_hal_rtc.c ****     /* Set RTC state */
1137:./Drivers/STM32F1xx_HAL_Driver/Src/stm32f1xx_hal_rtc.c ****     hrtc->State = HAL_RTC_STATE_ERROR;
1138:./Drivers/STM32F1xx_HAL_Driver/Src/stm32f1xx_hal_rtc.c ****     
1139:./Drivers/STM32F1xx_HAL_Driver/Src/stm32f1xx_hal_rtc.c ****     /* Process Unlocked */ 
1140:./Drivers/STM32F1xx_HAL_Driver/Src/stm32f1xx_hal_rtc.c ****     __HAL_UNLOCK(hrtc);
1141:./Drivers/STM32F1xx_HAL_Driver/Src/stm32f1xx_hal_rtc.c ****     
1142:./Drivers/STM32F1xx_HAL_Driver/Src/stm32f1xx_hal_rtc.c ****     return HAL_ERROR;
1143:./Drivers/STM32F1xx_HAL_Driver/Src/stm32f1xx_hal_rtc.c ****   } 
1144:./Drivers/STM32F1xx_HAL_Driver/Src/stm32f1xx_hal_rtc.c ****   else
1145:./Drivers/STM32F1xx_HAL_Driver/Src/stm32f1xx_hal_rtc.c ****   {
1146:./Drivers/STM32F1xx_HAL_Driver/Src/stm32f1xx_hal_rtc.c ****     /* Clear flag alarm A */
1147:./Drivers/STM32F1xx_HAL_Driver/Src/stm32f1xx_hal_rtc.c ****     __HAL_RTC_ALARM_CLEAR_FLAG(hrtc, RTC_FLAG_ALRAF);
1148:./Drivers/STM32F1xx_HAL_Driver/Src/stm32f1xx_hal_rtc.c ****     
1149:./Drivers/STM32F1xx_HAL_Driver/Src/stm32f1xx_hal_rtc.c ****     /* Set to default values ALRH & ALRL registers */
1150:./Drivers/STM32F1xx_HAL_Driver/Src/stm32f1xx_hal_rtc.c ****     WRITE_REG(hrtc->Instance->ALRH, RTC_ALARM_RESETVALUE_REGISTER);
1151:./Drivers/STM32F1xx_HAL_Driver/Src/stm32f1xx_hal_rtc.c ****     WRITE_REG(hrtc->Instance->ALRL, RTC_ALARM_RESETVALUE_REGISTER);
1152:./Drivers/STM32F1xx_HAL_Driver/Src/stm32f1xx_hal_rtc.c **** 
1153:./Drivers/STM32F1xx_HAL_Driver/Src/stm32f1xx_hal_rtc.c ****     /* RTC Alarm Interrupt Configuration: Disable EXTI configuration */
1154:./Drivers/STM32F1xx_HAL_Driver/Src/stm32f1xx_hal_rtc.c ****     __HAL_RTC_ALARM_EXTI_DISABLE_IT();
1155:./Drivers/STM32F1xx_HAL_Driver/Src/stm32f1xx_hal_rtc.c ****     
1156:./Drivers/STM32F1xx_HAL_Driver/Src/stm32f1xx_hal_rtc.c ****     /* Wait for synchro */
1157:./Drivers/STM32F1xx_HAL_Driver/Src/stm32f1xx_hal_rtc.c ****     if(RTC_ExitInitMode(hrtc) != HAL_OK)
1158:./Drivers/STM32F1xx_HAL_Driver/Src/stm32f1xx_hal_rtc.c ****     {       
1159:./Drivers/STM32F1xx_HAL_Driver/Src/stm32f1xx_hal_rtc.c ****       hrtc->State = HAL_RTC_STATE_ERROR;
1160:./Drivers/STM32F1xx_HAL_Driver/Src/stm32f1xx_hal_rtc.c ****       
1161:./Drivers/STM32F1xx_HAL_Driver/Src/stm32f1xx_hal_rtc.c ****       /* Process Unlocked */ 
1162:./Drivers/STM32F1xx_HAL_Driver/Src/stm32f1xx_hal_rtc.c ****       __HAL_UNLOCK(hrtc);
1163:./Drivers/STM32F1xx_HAL_Driver/Src/stm32f1xx_hal_rtc.c ****       
1164:./Drivers/STM32F1xx_HAL_Driver/Src/stm32f1xx_hal_rtc.c ****       return HAL_ERROR;
1165:./Drivers/STM32F1xx_HAL_Driver/Src/stm32f1xx_hal_rtc.c ****     }
1166:./Drivers/STM32F1xx_HAL_Driver/Src/stm32f1xx_hal_rtc.c ****   }
1167:./Drivers/STM32F1xx_HAL_Driver/Src/stm32f1xx_hal_rtc.c ****   hrtc->State = HAL_RTC_STATE_READY; 
1168:./Drivers/STM32F1xx_HAL_Driver/Src/stm32f1xx_hal_rtc.c ****   
1169:./Drivers/STM32F1xx_HAL_Driver/Src/stm32f1xx_hal_rtc.c ****   /* Process Unlocked */ 
1170:./Drivers/STM32F1xx_HAL_Driver/Src/stm32f1xx_hal_rtc.c ****   __HAL_UNLOCK(hrtc);  
1171:./Drivers/STM32F1xx_HAL_Driver/Src/stm32f1xx_hal_rtc.c ****   
1172:./Drivers/STM32F1xx_HAL_Driver/Src/stm32f1xx_hal_rtc.c ****   return HAL_OK; 
ARM GAS  /tmp/ccTzASZE.s 			page 22


1173:./Drivers/STM32F1xx_HAL_Driver/Src/stm32f1xx_hal_rtc.c **** }
1174:./Drivers/STM32F1xx_HAL_Driver/Src/stm32f1xx_hal_rtc.c **** 
1175:./Drivers/STM32F1xx_HAL_Driver/Src/stm32f1xx_hal_rtc.c **** /**
1176:./Drivers/STM32F1xx_HAL_Driver/Src/stm32f1xx_hal_rtc.c ****   * @brief  This function handles Alarm interrupt request.
1177:./Drivers/STM32F1xx_HAL_Driver/Src/stm32f1xx_hal_rtc.c ****   * @param  hrtc   pointer to a RTC_HandleTypeDef structure that contains
1178:./Drivers/STM32F1xx_HAL_Driver/Src/stm32f1xx_hal_rtc.c ****   *                the configuration information for RTC.
1179:./Drivers/STM32F1xx_HAL_Driver/Src/stm32f1xx_hal_rtc.c ****   * @retval None
1180:./Drivers/STM32F1xx_HAL_Driver/Src/stm32f1xx_hal_rtc.c ****   */
1181:./Drivers/STM32F1xx_HAL_Driver/Src/stm32f1xx_hal_rtc.c **** void HAL_RTC_AlarmIRQHandler(RTC_HandleTypeDef* hrtc)
1182:./Drivers/STM32F1xx_HAL_Driver/Src/stm32f1xx_hal_rtc.c **** {  
1183:./Drivers/STM32F1xx_HAL_Driver/Src/stm32f1xx_hal_rtc.c ****   if(__HAL_RTC_ALARM_GET_IT_SOURCE(hrtc, RTC_IT_ALRA))
1184:./Drivers/STM32F1xx_HAL_Driver/Src/stm32f1xx_hal_rtc.c ****   {
1185:./Drivers/STM32F1xx_HAL_Driver/Src/stm32f1xx_hal_rtc.c ****     /* Get the status of the Interrupt */
1186:./Drivers/STM32F1xx_HAL_Driver/Src/stm32f1xx_hal_rtc.c ****     if(__HAL_RTC_ALARM_GET_FLAG(hrtc, RTC_FLAG_ALRAF) != (uint32_t)RESET)
1187:./Drivers/STM32F1xx_HAL_Driver/Src/stm32f1xx_hal_rtc.c ****     {
1188:./Drivers/STM32F1xx_HAL_Driver/Src/stm32f1xx_hal_rtc.c ****       /* AlarmA callback */ 
1189:./Drivers/STM32F1xx_HAL_Driver/Src/stm32f1xx_hal_rtc.c ****       HAL_RTC_AlarmAEventCallback(hrtc);
1190:./Drivers/STM32F1xx_HAL_Driver/Src/stm32f1xx_hal_rtc.c ****       
1191:./Drivers/STM32F1xx_HAL_Driver/Src/stm32f1xx_hal_rtc.c ****       /* Clear the Alarm interrupt pending bit */
1192:./Drivers/STM32F1xx_HAL_Driver/Src/stm32f1xx_hal_rtc.c ****       __HAL_RTC_ALARM_CLEAR_FLAG(hrtc,RTC_FLAG_ALRAF);
1193:./Drivers/STM32F1xx_HAL_Driver/Src/stm32f1xx_hal_rtc.c ****     }
1194:./Drivers/STM32F1xx_HAL_Driver/Src/stm32f1xx_hal_rtc.c ****   }
1195:./Drivers/STM32F1xx_HAL_Driver/Src/stm32f1xx_hal_rtc.c ****   
1196:./Drivers/STM32F1xx_HAL_Driver/Src/stm32f1xx_hal_rtc.c ****   /* Clear the EXTI's line Flag for RTC Alarm */
1197:./Drivers/STM32F1xx_HAL_Driver/Src/stm32f1xx_hal_rtc.c ****   __HAL_RTC_ALARM_EXTI_CLEAR_FLAG();
1198:./Drivers/STM32F1xx_HAL_Driver/Src/stm32f1xx_hal_rtc.c ****   
1199:./Drivers/STM32F1xx_HAL_Driver/Src/stm32f1xx_hal_rtc.c ****   /* Change RTC state */
1200:./Drivers/STM32F1xx_HAL_Driver/Src/stm32f1xx_hal_rtc.c ****   hrtc->State = HAL_RTC_STATE_READY; 
1201:./Drivers/STM32F1xx_HAL_Driver/Src/stm32f1xx_hal_rtc.c **** }
1202:./Drivers/STM32F1xx_HAL_Driver/Src/stm32f1xx_hal_rtc.c **** 
1203:./Drivers/STM32F1xx_HAL_Driver/Src/stm32f1xx_hal_rtc.c **** /**
1204:./Drivers/STM32F1xx_HAL_Driver/Src/stm32f1xx_hal_rtc.c ****   * @brief  Alarm A callback.
1205:./Drivers/STM32F1xx_HAL_Driver/Src/stm32f1xx_hal_rtc.c ****   * @param  hrtc   pointer to a RTC_HandleTypeDef structure that contains
1206:./Drivers/STM32F1xx_HAL_Driver/Src/stm32f1xx_hal_rtc.c ****   *                the configuration information for RTC.
1207:./Drivers/STM32F1xx_HAL_Driver/Src/stm32f1xx_hal_rtc.c ****   * @retval None
1208:./Drivers/STM32F1xx_HAL_Driver/Src/stm32f1xx_hal_rtc.c ****   */
1209:./Drivers/STM32F1xx_HAL_Driver/Src/stm32f1xx_hal_rtc.c **** __weak void HAL_RTC_AlarmAEventCallback(RTC_HandleTypeDef *hrtc)
1210:./Drivers/STM32F1xx_HAL_Driver/Src/stm32f1xx_hal_rtc.c **** {
1211:./Drivers/STM32F1xx_HAL_Driver/Src/stm32f1xx_hal_rtc.c ****   /* Prevent unused argument(s) compilation warning */
1212:./Drivers/STM32F1xx_HAL_Driver/Src/stm32f1xx_hal_rtc.c ****   UNUSED(hrtc);
1213:./Drivers/STM32F1xx_HAL_Driver/Src/stm32f1xx_hal_rtc.c ****   /* NOTE : This function Should not be modified, when the callback is needed,
1214:./Drivers/STM32F1xx_HAL_Driver/Src/stm32f1xx_hal_rtc.c ****             the HAL_RTC_AlarmAEventCallback could be implemented in the user file
1215:./Drivers/STM32F1xx_HAL_Driver/Src/stm32f1xx_hal_rtc.c ****    */
1216:./Drivers/STM32F1xx_HAL_Driver/Src/stm32f1xx_hal_rtc.c **** }
1217:./Drivers/STM32F1xx_HAL_Driver/Src/stm32f1xx_hal_rtc.c **** 
1218:./Drivers/STM32F1xx_HAL_Driver/Src/stm32f1xx_hal_rtc.c **** /**
1219:./Drivers/STM32F1xx_HAL_Driver/Src/stm32f1xx_hal_rtc.c ****   * @brief  This function handles AlarmA Polling request.
1220:./Drivers/STM32F1xx_HAL_Driver/Src/stm32f1xx_hal_rtc.c ****   * @param  hrtc   pointer to a RTC_HandleTypeDef structure that contains
1221:./Drivers/STM32F1xx_HAL_Driver/Src/stm32f1xx_hal_rtc.c ****   *                the configuration information for RTC.
1222:./Drivers/STM32F1xx_HAL_Driver/Src/stm32f1xx_hal_rtc.c ****   * @param  Timeout: Timeout duration
1223:./Drivers/STM32F1xx_HAL_Driver/Src/stm32f1xx_hal_rtc.c ****   * @retval HAL status
1224:./Drivers/STM32F1xx_HAL_Driver/Src/stm32f1xx_hal_rtc.c ****   */
1225:./Drivers/STM32F1xx_HAL_Driver/Src/stm32f1xx_hal_rtc.c **** HAL_StatusTypeDef HAL_RTC_PollForAlarmAEvent(RTC_HandleTypeDef *hrtc, uint32_t Timeout)
1226:./Drivers/STM32F1xx_HAL_Driver/Src/stm32f1xx_hal_rtc.c **** {  
1227:./Drivers/STM32F1xx_HAL_Driver/Src/stm32f1xx_hal_rtc.c ****   uint32_t tickstart = HAL_GetTick();   
1228:./Drivers/STM32F1xx_HAL_Driver/Src/stm32f1xx_hal_rtc.c ****   
1229:./Drivers/STM32F1xx_HAL_Driver/Src/stm32f1xx_hal_rtc.c ****   /* Check input parameters */
ARM GAS  /tmp/ccTzASZE.s 			page 23


1230:./Drivers/STM32F1xx_HAL_Driver/Src/stm32f1xx_hal_rtc.c ****   if(hrtc == NULL)
1231:./Drivers/STM32F1xx_HAL_Driver/Src/stm32f1xx_hal_rtc.c ****   {
1232:./Drivers/STM32F1xx_HAL_Driver/Src/stm32f1xx_hal_rtc.c ****      return HAL_ERROR;
1233:./Drivers/STM32F1xx_HAL_Driver/Src/stm32f1xx_hal_rtc.c ****   }
1234:./Drivers/STM32F1xx_HAL_Driver/Src/stm32f1xx_hal_rtc.c ****   
1235:./Drivers/STM32F1xx_HAL_Driver/Src/stm32f1xx_hal_rtc.c ****   while(__HAL_RTC_ALARM_GET_FLAG(hrtc, RTC_FLAG_ALRAF) == RESET)
1236:./Drivers/STM32F1xx_HAL_Driver/Src/stm32f1xx_hal_rtc.c ****   {
1237:./Drivers/STM32F1xx_HAL_Driver/Src/stm32f1xx_hal_rtc.c ****     if(Timeout != HAL_MAX_DELAY)
1238:./Drivers/STM32F1xx_HAL_Driver/Src/stm32f1xx_hal_rtc.c ****     {
1239:./Drivers/STM32F1xx_HAL_Driver/Src/stm32f1xx_hal_rtc.c ****       if((Timeout == 0)||((HAL_GetTick() - tickstart ) > Timeout))
1240:./Drivers/STM32F1xx_HAL_Driver/Src/stm32f1xx_hal_rtc.c ****       {
1241:./Drivers/STM32F1xx_HAL_Driver/Src/stm32f1xx_hal_rtc.c ****         hrtc->State = HAL_RTC_STATE_TIMEOUT;
1242:./Drivers/STM32F1xx_HAL_Driver/Src/stm32f1xx_hal_rtc.c ****         return HAL_TIMEOUT;
1243:./Drivers/STM32F1xx_HAL_Driver/Src/stm32f1xx_hal_rtc.c ****       }
1244:./Drivers/STM32F1xx_HAL_Driver/Src/stm32f1xx_hal_rtc.c ****     }
1245:./Drivers/STM32F1xx_HAL_Driver/Src/stm32f1xx_hal_rtc.c ****   }
1246:./Drivers/STM32F1xx_HAL_Driver/Src/stm32f1xx_hal_rtc.c ****   
1247:./Drivers/STM32F1xx_HAL_Driver/Src/stm32f1xx_hal_rtc.c ****   /* Clear the Alarm interrupt pending bit */
1248:./Drivers/STM32F1xx_HAL_Driver/Src/stm32f1xx_hal_rtc.c ****   __HAL_RTC_ALARM_CLEAR_FLAG(hrtc, RTC_FLAG_ALRAF);
1249:./Drivers/STM32F1xx_HAL_Driver/Src/stm32f1xx_hal_rtc.c ****   
1250:./Drivers/STM32F1xx_HAL_Driver/Src/stm32f1xx_hal_rtc.c ****   /* Change RTC state */
1251:./Drivers/STM32F1xx_HAL_Driver/Src/stm32f1xx_hal_rtc.c ****   hrtc->State = HAL_RTC_STATE_READY; 
1252:./Drivers/STM32F1xx_HAL_Driver/Src/stm32f1xx_hal_rtc.c ****   
1253:./Drivers/STM32F1xx_HAL_Driver/Src/stm32f1xx_hal_rtc.c ****   return HAL_OK;  
1254:./Drivers/STM32F1xx_HAL_Driver/Src/stm32f1xx_hal_rtc.c **** }
1255:./Drivers/STM32F1xx_HAL_Driver/Src/stm32f1xx_hal_rtc.c **** 
1256:./Drivers/STM32F1xx_HAL_Driver/Src/stm32f1xx_hal_rtc.c **** /**
1257:./Drivers/STM32F1xx_HAL_Driver/Src/stm32f1xx_hal_rtc.c ****   * @}
1258:./Drivers/STM32F1xx_HAL_Driver/Src/stm32f1xx_hal_rtc.c ****   */
1259:./Drivers/STM32F1xx_HAL_Driver/Src/stm32f1xx_hal_rtc.c **** 
1260:./Drivers/STM32F1xx_HAL_Driver/Src/stm32f1xx_hal_rtc.c **** /** @defgroup RTC_Exported_Functions_Group4 Peripheral State functions 
1261:./Drivers/STM32F1xx_HAL_Driver/Src/stm32f1xx_hal_rtc.c ****  *  @brief   Peripheral State functions 
1262:./Drivers/STM32F1xx_HAL_Driver/Src/stm32f1xx_hal_rtc.c ****  *
1263:./Drivers/STM32F1xx_HAL_Driver/Src/stm32f1xx_hal_rtc.c **** @verbatim   
1264:./Drivers/STM32F1xx_HAL_Driver/Src/stm32f1xx_hal_rtc.c ****  ===============================================================================
1265:./Drivers/STM32F1xx_HAL_Driver/Src/stm32f1xx_hal_rtc.c ****                      ##### Peripheral State functions #####
1266:./Drivers/STM32F1xx_HAL_Driver/Src/stm32f1xx_hal_rtc.c ****  ===============================================================================  
1267:./Drivers/STM32F1xx_HAL_Driver/Src/stm32f1xx_hal_rtc.c ****     [..]
1268:./Drivers/STM32F1xx_HAL_Driver/Src/stm32f1xx_hal_rtc.c ****     This subsection provides functions allowing to
1269:./Drivers/STM32F1xx_HAL_Driver/Src/stm32f1xx_hal_rtc.c ****       (+) Get RTC state
1270:./Drivers/STM32F1xx_HAL_Driver/Src/stm32f1xx_hal_rtc.c **** 
1271:./Drivers/STM32F1xx_HAL_Driver/Src/stm32f1xx_hal_rtc.c **** @endverbatim
1272:./Drivers/STM32F1xx_HAL_Driver/Src/stm32f1xx_hal_rtc.c ****   * @{
1273:./Drivers/STM32F1xx_HAL_Driver/Src/stm32f1xx_hal_rtc.c ****   */
1274:./Drivers/STM32F1xx_HAL_Driver/Src/stm32f1xx_hal_rtc.c **** /**
1275:./Drivers/STM32F1xx_HAL_Driver/Src/stm32f1xx_hal_rtc.c ****   * @brief  Returns the RTC state.
1276:./Drivers/STM32F1xx_HAL_Driver/Src/stm32f1xx_hal_rtc.c ****   * @param  hrtc   pointer to a RTC_HandleTypeDef structure that contains
1277:./Drivers/STM32F1xx_HAL_Driver/Src/stm32f1xx_hal_rtc.c ****   *                the configuration information for RTC.
1278:./Drivers/STM32F1xx_HAL_Driver/Src/stm32f1xx_hal_rtc.c ****   * @retval HAL state
1279:./Drivers/STM32F1xx_HAL_Driver/Src/stm32f1xx_hal_rtc.c ****   */
1280:./Drivers/STM32F1xx_HAL_Driver/Src/stm32f1xx_hal_rtc.c **** HAL_RTCStateTypeDef HAL_RTC_GetState(RTC_HandleTypeDef* hrtc)
1281:./Drivers/STM32F1xx_HAL_Driver/Src/stm32f1xx_hal_rtc.c **** {
1282:./Drivers/STM32F1xx_HAL_Driver/Src/stm32f1xx_hal_rtc.c ****   return hrtc->State;
1283:./Drivers/STM32F1xx_HAL_Driver/Src/stm32f1xx_hal_rtc.c **** }
1284:./Drivers/STM32F1xx_HAL_Driver/Src/stm32f1xx_hal_rtc.c **** 
1285:./Drivers/STM32F1xx_HAL_Driver/Src/stm32f1xx_hal_rtc.c **** /**
1286:./Drivers/STM32F1xx_HAL_Driver/Src/stm32f1xx_hal_rtc.c ****   * @}
ARM GAS  /tmp/ccTzASZE.s 			page 24


1287:./Drivers/STM32F1xx_HAL_Driver/Src/stm32f1xx_hal_rtc.c ****   */
1288:./Drivers/STM32F1xx_HAL_Driver/Src/stm32f1xx_hal_rtc.c **** 
1289:./Drivers/STM32F1xx_HAL_Driver/Src/stm32f1xx_hal_rtc.c **** /** @defgroup RTC_Exported_Functions_Group5 Peripheral Control functions 
1290:./Drivers/STM32F1xx_HAL_Driver/Src/stm32f1xx_hal_rtc.c ****  *  @brief   Peripheral Control functions 
1291:./Drivers/STM32F1xx_HAL_Driver/Src/stm32f1xx_hal_rtc.c ****  *
1292:./Drivers/STM32F1xx_HAL_Driver/Src/stm32f1xx_hal_rtc.c **** @verbatim   
1293:./Drivers/STM32F1xx_HAL_Driver/Src/stm32f1xx_hal_rtc.c ****  ===============================================================================
1294:./Drivers/STM32F1xx_HAL_Driver/Src/stm32f1xx_hal_rtc.c ****                      ##### Peripheral Control functions #####
1295:./Drivers/STM32F1xx_HAL_Driver/Src/stm32f1xx_hal_rtc.c ****  ===============================================================================  
1296:./Drivers/STM32F1xx_HAL_Driver/Src/stm32f1xx_hal_rtc.c ****     [..]
1297:./Drivers/STM32F1xx_HAL_Driver/Src/stm32f1xx_hal_rtc.c ****     This subsection provides functions allowing to
1298:./Drivers/STM32F1xx_HAL_Driver/Src/stm32f1xx_hal_rtc.c ****       (+) Wait for RTC Time and Date Synchronization
1299:./Drivers/STM32F1xx_HAL_Driver/Src/stm32f1xx_hal_rtc.c **** 
1300:./Drivers/STM32F1xx_HAL_Driver/Src/stm32f1xx_hal_rtc.c **** @endverbatim
1301:./Drivers/STM32F1xx_HAL_Driver/Src/stm32f1xx_hal_rtc.c ****   * @{
1302:./Drivers/STM32F1xx_HAL_Driver/Src/stm32f1xx_hal_rtc.c ****   */
1303:./Drivers/STM32F1xx_HAL_Driver/Src/stm32f1xx_hal_rtc.c **** 
1304:./Drivers/STM32F1xx_HAL_Driver/Src/stm32f1xx_hal_rtc.c **** /**
1305:./Drivers/STM32F1xx_HAL_Driver/Src/stm32f1xx_hal_rtc.c ****   * @brief  Waits until the RTC registers (RTC_CNT, RTC_ALR and RTC_PRL)
1306:./Drivers/STM32F1xx_HAL_Driver/Src/stm32f1xx_hal_rtc.c ****   *   are synchronized with RTC APB clock.
1307:./Drivers/STM32F1xx_HAL_Driver/Src/stm32f1xx_hal_rtc.c ****   * @note   This function must be called before any read operation after an APB reset
1308:./Drivers/STM32F1xx_HAL_Driver/Src/stm32f1xx_hal_rtc.c ****   *   or an APB clock stop.
1309:./Drivers/STM32F1xx_HAL_Driver/Src/stm32f1xx_hal_rtc.c ****   * @param  hrtc   pointer to a RTC_HandleTypeDef structure that contains
1310:./Drivers/STM32F1xx_HAL_Driver/Src/stm32f1xx_hal_rtc.c ****   *                the configuration information for RTC.
1311:./Drivers/STM32F1xx_HAL_Driver/Src/stm32f1xx_hal_rtc.c ****   * @retval HAL status
1312:./Drivers/STM32F1xx_HAL_Driver/Src/stm32f1xx_hal_rtc.c ****   */
1313:./Drivers/STM32F1xx_HAL_Driver/Src/stm32f1xx_hal_rtc.c **** HAL_StatusTypeDef HAL_RTC_WaitForSynchro(RTC_HandleTypeDef* hrtc)
1314:./Drivers/STM32F1xx_HAL_Driver/Src/stm32f1xx_hal_rtc.c **** {
1315:./Drivers/STM32F1xx_HAL_Driver/Src/stm32f1xx_hal_rtc.c ****   uint32_t tickstart = 0U;
1316:./Drivers/STM32F1xx_HAL_Driver/Src/stm32f1xx_hal_rtc.c ****   
1317:./Drivers/STM32F1xx_HAL_Driver/Src/stm32f1xx_hal_rtc.c ****   /* Check input parameters */
1318:./Drivers/STM32F1xx_HAL_Driver/Src/stm32f1xx_hal_rtc.c ****   if(hrtc == NULL)
1319:./Drivers/STM32F1xx_HAL_Driver/Src/stm32f1xx_hal_rtc.c ****   {
1320:./Drivers/STM32F1xx_HAL_Driver/Src/stm32f1xx_hal_rtc.c ****      return HAL_ERROR;
1321:./Drivers/STM32F1xx_HAL_Driver/Src/stm32f1xx_hal_rtc.c ****   }
1322:./Drivers/STM32F1xx_HAL_Driver/Src/stm32f1xx_hal_rtc.c ****   
1323:./Drivers/STM32F1xx_HAL_Driver/Src/stm32f1xx_hal_rtc.c ****   /* Clear RSF flag */
1324:./Drivers/STM32F1xx_HAL_Driver/Src/stm32f1xx_hal_rtc.c ****   CLEAR_BIT(hrtc->Instance->CRL, RTC_FLAG_RSF);
1325:./Drivers/STM32F1xx_HAL_Driver/Src/stm32f1xx_hal_rtc.c ****   
1326:./Drivers/STM32F1xx_HAL_Driver/Src/stm32f1xx_hal_rtc.c ****   tickstart = HAL_GetTick();
1327:./Drivers/STM32F1xx_HAL_Driver/Src/stm32f1xx_hal_rtc.c ****   
1328:./Drivers/STM32F1xx_HAL_Driver/Src/stm32f1xx_hal_rtc.c ****   /* Wait the registers to be synchronised */
1329:./Drivers/STM32F1xx_HAL_Driver/Src/stm32f1xx_hal_rtc.c ****   while((hrtc->Instance->CRL & RTC_FLAG_RSF) == (uint32_t)RESET)
1330:./Drivers/STM32F1xx_HAL_Driver/Src/stm32f1xx_hal_rtc.c ****   {
1331:./Drivers/STM32F1xx_HAL_Driver/Src/stm32f1xx_hal_rtc.c ****     if((HAL_GetTick() - tickstart ) >  RTC_TIMEOUT_VALUE)
1332:./Drivers/STM32F1xx_HAL_Driver/Src/stm32f1xx_hal_rtc.c ****     {       
1333:./Drivers/STM32F1xx_HAL_Driver/Src/stm32f1xx_hal_rtc.c ****       return HAL_TIMEOUT;
1334:./Drivers/STM32F1xx_HAL_Driver/Src/stm32f1xx_hal_rtc.c ****     } 
1335:./Drivers/STM32F1xx_HAL_Driver/Src/stm32f1xx_hal_rtc.c ****   }
1336:./Drivers/STM32F1xx_HAL_Driver/Src/stm32f1xx_hal_rtc.c ****   
1337:./Drivers/STM32F1xx_HAL_Driver/Src/stm32f1xx_hal_rtc.c ****   return HAL_OK;
1338:./Drivers/STM32F1xx_HAL_Driver/Src/stm32f1xx_hal_rtc.c **** }
1339:./Drivers/STM32F1xx_HAL_Driver/Src/stm32f1xx_hal_rtc.c **** 
1340:./Drivers/STM32F1xx_HAL_Driver/Src/stm32f1xx_hal_rtc.c **** /**
1341:./Drivers/STM32F1xx_HAL_Driver/Src/stm32f1xx_hal_rtc.c ****   * @}
1342:./Drivers/STM32F1xx_HAL_Driver/Src/stm32f1xx_hal_rtc.c ****   */
1343:./Drivers/STM32F1xx_HAL_Driver/Src/stm32f1xx_hal_rtc.c **** 
ARM GAS  /tmp/ccTzASZE.s 			page 25


1344:./Drivers/STM32F1xx_HAL_Driver/Src/stm32f1xx_hal_rtc.c **** 
1345:./Drivers/STM32F1xx_HAL_Driver/Src/stm32f1xx_hal_rtc.c **** /**
1346:./Drivers/STM32F1xx_HAL_Driver/Src/stm32f1xx_hal_rtc.c ****   * @}
1347:./Drivers/STM32F1xx_HAL_Driver/Src/stm32f1xx_hal_rtc.c ****   */
1348:./Drivers/STM32F1xx_HAL_Driver/Src/stm32f1xx_hal_rtc.c **** 
1349:./Drivers/STM32F1xx_HAL_Driver/Src/stm32f1xx_hal_rtc.c **** /** @addtogroup RTC_Private_Functions
1350:./Drivers/STM32F1xx_HAL_Driver/Src/stm32f1xx_hal_rtc.c ****   * @{
1351:./Drivers/STM32F1xx_HAL_Driver/Src/stm32f1xx_hal_rtc.c ****   */
1352:./Drivers/STM32F1xx_HAL_Driver/Src/stm32f1xx_hal_rtc.c ****   
1353:./Drivers/STM32F1xx_HAL_Driver/Src/stm32f1xx_hal_rtc.c **** 
1354:./Drivers/STM32F1xx_HAL_Driver/Src/stm32f1xx_hal_rtc.c **** /**
1355:./Drivers/STM32F1xx_HAL_Driver/Src/stm32f1xx_hal_rtc.c ****   * @brief  Read the time counter available in RTC_CNT registers.
1356:./Drivers/STM32F1xx_HAL_Driver/Src/stm32f1xx_hal_rtc.c ****   * @param  hrtc   pointer to a RTC_HandleTypeDef structure that contains
1357:./Drivers/STM32F1xx_HAL_Driver/Src/stm32f1xx_hal_rtc.c ****   *                the configuration information for RTC.
1358:./Drivers/STM32F1xx_HAL_Driver/Src/stm32f1xx_hal_rtc.c ****   * @retval Time counter
1359:./Drivers/STM32F1xx_HAL_Driver/Src/stm32f1xx_hal_rtc.c ****   */
1360:./Drivers/STM32F1xx_HAL_Driver/Src/stm32f1xx_hal_rtc.c **** static uint32_t RTC_ReadTimeCounter(RTC_HandleTypeDef* hrtc)
1361:./Drivers/STM32F1xx_HAL_Driver/Src/stm32f1xx_hal_rtc.c **** {
  27              		.loc 1 1361 0
  28              		.cfi_startproc
  29              		@ args = 0, pretend = 0, frame = 0
  30              		@ frame_needed = 0, uses_anonymous_args = 0
  31              		@ link register save eliminated.
  32              	.LVL0:
  33 0000 30B4     		push	{r4, r5}
  34              	.LCFI0:
  35              		.cfi_def_cfa_offset 8
  36              		.cfi_offset 4, -8
  37              		.cfi_offset 5, -4
  38              	.LVL1:
1362:./Drivers/STM32F1xx_HAL_Driver/Src/stm32f1xx_hal_rtc.c ****   uint16_t high1 = 0U, high2 = 0U, low = 0U;
1363:./Drivers/STM32F1xx_HAL_Driver/Src/stm32f1xx_hal_rtc.c ****   uint32_t timecounter = 0U;
1364:./Drivers/STM32F1xx_HAL_Driver/Src/stm32f1xx_hal_rtc.c **** 
1365:./Drivers/STM32F1xx_HAL_Driver/Src/stm32f1xx_hal_rtc.c ****   high1 = READ_REG(hrtc->Instance->CNTH & RTC_CNTH_RTC_CNT);
  39              		.loc 1 1365 0
  40 0002 0268     		ldr	r2, [r0]
  41 0004 9169     		ldr	r1, [r2, #24]
  42 0006 8DB2     		uxth	r5, r1
  43              	.LVL2:
1366:./Drivers/STM32F1xx_HAL_Driver/Src/stm32f1xx_hal_rtc.c ****   low   = READ_REG(hrtc->Instance->CNTL & RTC_CNTL_RTC_CNT);
  44              		.loc 1 1366 0
  45 0008 D369     		ldr	r3, [r2, #28]
  46              	.LVL3:
1367:./Drivers/STM32F1xx_HAL_Driver/Src/stm32f1xx_hal_rtc.c ****   high2 = READ_REG(hrtc->Instance->CNTH & RTC_CNTH_RTC_CNT);
  47              		.loc 1 1367 0
  48 000a 9069     		ldr	r0, [r2, #24]
  49              	.LVL4:
  50 000c 84B2     		uxth	r4, r0
  51              	.LVL5:
1368:./Drivers/STM32F1xx_HAL_Driver/Src/stm32f1xx_hal_rtc.c **** 
1369:./Drivers/STM32F1xx_HAL_Driver/Src/stm32f1xx_hal_rtc.c ****   if (high1 != high2)
  52              		.loc 1 1369 0
  53 000e A542     		cmp	r5, r4
  54 0010 04D0     		beq	.L2
1370:./Drivers/STM32F1xx_HAL_Driver/Src/stm32f1xx_hal_rtc.c ****   { /* In this case the counter roll over during reading of CNTL and CNTH registers, 
1371:./Drivers/STM32F1xx_HAL_Driver/Src/stm32f1xx_hal_rtc.c ****        read again CNTL register then return the counter value */
1372:./Drivers/STM32F1xx_HAL_Driver/Src/stm32f1xx_hal_rtc.c ****     timecounter = (((uint32_t) high2 << 16U) | READ_REG(hrtc->Instance->CNTL & RTC_CNTL_RTC_CNT));
ARM GAS  /tmp/ccTzASZE.s 			page 26


  55              		.loc 1 1372 0
  56 0012 D369     		ldr	r3, [r2, #28]
  57              	.LVL6:
  58 0014 9BB2     		uxth	r3, r3
  59 0016 43EA0040 		orr	r0, r3, r0, lsl #16
  60              	.LVL7:
  61 001a 02E0     		b	.L3
  62              	.LVL8:
  63              	.L2:
1373:./Drivers/STM32F1xx_HAL_Driver/Src/stm32f1xx_hal_rtc.c ****   }
1374:./Drivers/STM32F1xx_HAL_Driver/Src/stm32f1xx_hal_rtc.c ****   else
1375:./Drivers/STM32F1xx_HAL_Driver/Src/stm32f1xx_hal_rtc.c ****   { /* No counter roll over during reading of CNTL and CNTH registers, counter 
1376:./Drivers/STM32F1xx_HAL_Driver/Src/stm32f1xx_hal_rtc.c ****        value is equal to first value of CNTL and CNTH */
1377:./Drivers/STM32F1xx_HAL_Driver/Src/stm32f1xx_hal_rtc.c ****     timecounter = (((uint32_t) high1 << 16U) | low);
  64              		.loc 1 1377 0
  65 001c 9BB2     		uxth	r3, r3
  66 001e 43EA0140 		orr	r0, r3, r1, lsl #16
  67              	.LVL9:
  68              	.L3:
1378:./Drivers/STM32F1xx_HAL_Driver/Src/stm32f1xx_hal_rtc.c ****   }
1379:./Drivers/STM32F1xx_HAL_Driver/Src/stm32f1xx_hal_rtc.c **** 
1380:./Drivers/STM32F1xx_HAL_Driver/Src/stm32f1xx_hal_rtc.c ****   return timecounter;
1381:./Drivers/STM32F1xx_HAL_Driver/Src/stm32f1xx_hal_rtc.c **** }
  69              		.loc 1 1381 0
  70 0022 30BC     		pop	{r4, r5}
  71              	.LCFI1:
  72              		.cfi_restore 5
  73              		.cfi_restore 4
  74              		.cfi_def_cfa_offset 0
  75              	.LVL10:
  76 0024 7047     		bx	lr
  77              		.cfi_endproc
  78              	.LFE81:
  80 0026 00BF     		.section	.text.RTC_ReadAlarmCounter,"ax",%progbits
  81              		.align	2
  82              		.thumb
  83              		.thumb_func
  85              	RTC_ReadAlarmCounter:
  86              	.LFB83:
1382:./Drivers/STM32F1xx_HAL_Driver/Src/stm32f1xx_hal_rtc.c **** 
1383:./Drivers/STM32F1xx_HAL_Driver/Src/stm32f1xx_hal_rtc.c **** /**
1384:./Drivers/STM32F1xx_HAL_Driver/Src/stm32f1xx_hal_rtc.c ****   * @brief  Write the time counter in RTC_CNT registers.
1385:./Drivers/STM32F1xx_HAL_Driver/Src/stm32f1xx_hal_rtc.c ****   * @param  hrtc   pointer to a RTC_HandleTypeDef structure that contains
1386:./Drivers/STM32F1xx_HAL_Driver/Src/stm32f1xx_hal_rtc.c ****   *                the configuration information for RTC.
1387:./Drivers/STM32F1xx_HAL_Driver/Src/stm32f1xx_hal_rtc.c ****   * @param  TimeCounter: Counter to write in RTC_CNT registers
1388:./Drivers/STM32F1xx_HAL_Driver/Src/stm32f1xx_hal_rtc.c ****   * @retval HAL status
1389:./Drivers/STM32F1xx_HAL_Driver/Src/stm32f1xx_hal_rtc.c ****   */
1390:./Drivers/STM32F1xx_HAL_Driver/Src/stm32f1xx_hal_rtc.c **** static HAL_StatusTypeDef RTC_WriteTimeCounter(RTC_HandleTypeDef* hrtc, uint32_t TimeCounter)
1391:./Drivers/STM32F1xx_HAL_Driver/Src/stm32f1xx_hal_rtc.c **** {
1392:./Drivers/STM32F1xx_HAL_Driver/Src/stm32f1xx_hal_rtc.c ****   HAL_StatusTypeDef status = HAL_OK;
1393:./Drivers/STM32F1xx_HAL_Driver/Src/stm32f1xx_hal_rtc.c ****   
1394:./Drivers/STM32F1xx_HAL_Driver/Src/stm32f1xx_hal_rtc.c ****   /* Set Initialization mode */
1395:./Drivers/STM32F1xx_HAL_Driver/Src/stm32f1xx_hal_rtc.c ****   if(RTC_EnterInitMode(hrtc) != HAL_OK)
1396:./Drivers/STM32F1xx_HAL_Driver/Src/stm32f1xx_hal_rtc.c ****   {
1397:./Drivers/STM32F1xx_HAL_Driver/Src/stm32f1xx_hal_rtc.c ****     status = HAL_ERROR;
1398:./Drivers/STM32F1xx_HAL_Driver/Src/stm32f1xx_hal_rtc.c ****   } 
1399:./Drivers/STM32F1xx_HAL_Driver/Src/stm32f1xx_hal_rtc.c ****   else
ARM GAS  /tmp/ccTzASZE.s 			page 27


1400:./Drivers/STM32F1xx_HAL_Driver/Src/stm32f1xx_hal_rtc.c ****   {
1401:./Drivers/STM32F1xx_HAL_Driver/Src/stm32f1xx_hal_rtc.c ****     /* Set RTC COUNTER MSB word */
1402:./Drivers/STM32F1xx_HAL_Driver/Src/stm32f1xx_hal_rtc.c ****     WRITE_REG(hrtc->Instance->CNTH, (TimeCounter >> 16U));
1403:./Drivers/STM32F1xx_HAL_Driver/Src/stm32f1xx_hal_rtc.c ****     /* Set RTC COUNTER LSB word */
1404:./Drivers/STM32F1xx_HAL_Driver/Src/stm32f1xx_hal_rtc.c ****     WRITE_REG(hrtc->Instance->CNTL, (TimeCounter & RTC_CNTL_RTC_CNT));
1405:./Drivers/STM32F1xx_HAL_Driver/Src/stm32f1xx_hal_rtc.c ****     
1406:./Drivers/STM32F1xx_HAL_Driver/Src/stm32f1xx_hal_rtc.c ****     /* Wait for synchro */
1407:./Drivers/STM32F1xx_HAL_Driver/Src/stm32f1xx_hal_rtc.c ****     if(RTC_ExitInitMode(hrtc) != HAL_OK)
1408:./Drivers/STM32F1xx_HAL_Driver/Src/stm32f1xx_hal_rtc.c ****     {       
1409:./Drivers/STM32F1xx_HAL_Driver/Src/stm32f1xx_hal_rtc.c ****       status = HAL_ERROR;
1410:./Drivers/STM32F1xx_HAL_Driver/Src/stm32f1xx_hal_rtc.c ****     }
1411:./Drivers/STM32F1xx_HAL_Driver/Src/stm32f1xx_hal_rtc.c ****   }
1412:./Drivers/STM32F1xx_HAL_Driver/Src/stm32f1xx_hal_rtc.c **** 
1413:./Drivers/STM32F1xx_HAL_Driver/Src/stm32f1xx_hal_rtc.c ****   return status;
1414:./Drivers/STM32F1xx_HAL_Driver/Src/stm32f1xx_hal_rtc.c **** }
1415:./Drivers/STM32F1xx_HAL_Driver/Src/stm32f1xx_hal_rtc.c **** 
1416:./Drivers/STM32F1xx_HAL_Driver/Src/stm32f1xx_hal_rtc.c **** /**
1417:./Drivers/STM32F1xx_HAL_Driver/Src/stm32f1xx_hal_rtc.c ****   * @brief  Read the time counter available in RTC_ALR registers.
1418:./Drivers/STM32F1xx_HAL_Driver/Src/stm32f1xx_hal_rtc.c ****   * @param  hrtc   pointer to a RTC_HandleTypeDef structure that contains
1419:./Drivers/STM32F1xx_HAL_Driver/Src/stm32f1xx_hal_rtc.c ****   *                the configuration information for RTC.
1420:./Drivers/STM32F1xx_HAL_Driver/Src/stm32f1xx_hal_rtc.c ****   * @retval Time counter
1421:./Drivers/STM32F1xx_HAL_Driver/Src/stm32f1xx_hal_rtc.c ****   */
1422:./Drivers/STM32F1xx_HAL_Driver/Src/stm32f1xx_hal_rtc.c **** static uint32_t RTC_ReadAlarmCounter(RTC_HandleTypeDef* hrtc)
1423:./Drivers/STM32F1xx_HAL_Driver/Src/stm32f1xx_hal_rtc.c **** {
  87              		.loc 1 1423 0
  88              		.cfi_startproc
  89              		@ args = 0, pretend = 0, frame = 0
  90              		@ frame_needed = 0, uses_anonymous_args = 0
  91              		@ link register save eliminated.
  92              	.LVL11:
1424:./Drivers/STM32F1xx_HAL_Driver/Src/stm32f1xx_hal_rtc.c ****   uint16_t high1 = 0U, low = 0U;
1425:./Drivers/STM32F1xx_HAL_Driver/Src/stm32f1xx_hal_rtc.c **** 
1426:./Drivers/STM32F1xx_HAL_Driver/Src/stm32f1xx_hal_rtc.c ****   high1 = READ_REG(hrtc->Instance->ALRH & RTC_CNTH_RTC_CNT);
  93              		.loc 1 1426 0
  94 0000 0368     		ldr	r3, [r0]
  95 0002 186A     		ldr	r0, [r3, #32]
  96              	.LVL12:
1427:./Drivers/STM32F1xx_HAL_Driver/Src/stm32f1xx_hal_rtc.c ****   low   = READ_REG(hrtc->Instance->ALRL & RTC_CNTL_RTC_CNT);
  97              		.loc 1 1427 0
  98 0004 5B6A     		ldr	r3, [r3, #36]
  99              	.LVL13:
1428:./Drivers/STM32F1xx_HAL_Driver/Src/stm32f1xx_hal_rtc.c **** 
1429:./Drivers/STM32F1xx_HAL_Driver/Src/stm32f1xx_hal_rtc.c ****   return (((uint32_t) high1 << 16U) | low);
 100              		.loc 1 1429 0
 101 0006 9BB2     		uxth	r3, r3
1430:./Drivers/STM32F1xx_HAL_Driver/Src/stm32f1xx_hal_rtc.c **** }
 102              		.loc 1 1430 0
 103 0008 43EA0040 		orr	r0, r3, r0, lsl #16
 104              	.LVL14:
 105 000c 7047     		bx	lr
 106              		.cfi_endproc
 107              	.LFE83:
 109 000e 00BF     		.section	.text.RTC_ByteToBcd2,"ax",%progbits
 110              		.align	2
 111              		.thumb
 112              		.thumb_func
 114              	RTC_ByteToBcd2:
ARM GAS  /tmp/ccTzASZE.s 			page 28


 115              	.LFB87:
1431:./Drivers/STM32F1xx_HAL_Driver/Src/stm32f1xx_hal_rtc.c **** 
1432:./Drivers/STM32F1xx_HAL_Driver/Src/stm32f1xx_hal_rtc.c **** /**
1433:./Drivers/STM32F1xx_HAL_Driver/Src/stm32f1xx_hal_rtc.c ****   * @brief  Write the time counter in RTC_ALR registers.
1434:./Drivers/STM32F1xx_HAL_Driver/Src/stm32f1xx_hal_rtc.c ****   * @param  hrtc   pointer to a RTC_HandleTypeDef structure that contains
1435:./Drivers/STM32F1xx_HAL_Driver/Src/stm32f1xx_hal_rtc.c ****   *                the configuration information for RTC.
1436:./Drivers/STM32F1xx_HAL_Driver/Src/stm32f1xx_hal_rtc.c ****   * @param  AlarmCounter: Counter to write in RTC_ALR registers
1437:./Drivers/STM32F1xx_HAL_Driver/Src/stm32f1xx_hal_rtc.c ****   * @retval HAL status
1438:./Drivers/STM32F1xx_HAL_Driver/Src/stm32f1xx_hal_rtc.c ****   */
1439:./Drivers/STM32F1xx_HAL_Driver/Src/stm32f1xx_hal_rtc.c **** static HAL_StatusTypeDef RTC_WriteAlarmCounter(RTC_HandleTypeDef* hrtc, uint32_t AlarmCounter)
1440:./Drivers/STM32F1xx_HAL_Driver/Src/stm32f1xx_hal_rtc.c **** {
1441:./Drivers/STM32F1xx_HAL_Driver/Src/stm32f1xx_hal_rtc.c ****   HAL_StatusTypeDef status = HAL_OK;
1442:./Drivers/STM32F1xx_HAL_Driver/Src/stm32f1xx_hal_rtc.c ****   
1443:./Drivers/STM32F1xx_HAL_Driver/Src/stm32f1xx_hal_rtc.c ****   /* Set Initialization mode */
1444:./Drivers/STM32F1xx_HAL_Driver/Src/stm32f1xx_hal_rtc.c ****   if(RTC_EnterInitMode(hrtc) != HAL_OK)
1445:./Drivers/STM32F1xx_HAL_Driver/Src/stm32f1xx_hal_rtc.c ****   {
1446:./Drivers/STM32F1xx_HAL_Driver/Src/stm32f1xx_hal_rtc.c ****     status = HAL_ERROR;
1447:./Drivers/STM32F1xx_HAL_Driver/Src/stm32f1xx_hal_rtc.c ****   } 
1448:./Drivers/STM32F1xx_HAL_Driver/Src/stm32f1xx_hal_rtc.c ****   else
1449:./Drivers/STM32F1xx_HAL_Driver/Src/stm32f1xx_hal_rtc.c ****   {
1450:./Drivers/STM32F1xx_HAL_Driver/Src/stm32f1xx_hal_rtc.c ****     /* Set RTC COUNTER MSB word */
1451:./Drivers/STM32F1xx_HAL_Driver/Src/stm32f1xx_hal_rtc.c ****     WRITE_REG(hrtc->Instance->ALRH, (AlarmCounter >> 16U));
1452:./Drivers/STM32F1xx_HAL_Driver/Src/stm32f1xx_hal_rtc.c ****     /* Set RTC COUNTER LSB word */
1453:./Drivers/STM32F1xx_HAL_Driver/Src/stm32f1xx_hal_rtc.c ****     WRITE_REG(hrtc->Instance->ALRL, (AlarmCounter & RTC_ALRL_RTC_ALR));
1454:./Drivers/STM32F1xx_HAL_Driver/Src/stm32f1xx_hal_rtc.c ****     
1455:./Drivers/STM32F1xx_HAL_Driver/Src/stm32f1xx_hal_rtc.c ****     /* Wait for synchro */
1456:./Drivers/STM32F1xx_HAL_Driver/Src/stm32f1xx_hal_rtc.c ****     if(RTC_ExitInitMode(hrtc) != HAL_OK)
1457:./Drivers/STM32F1xx_HAL_Driver/Src/stm32f1xx_hal_rtc.c ****     {       
1458:./Drivers/STM32F1xx_HAL_Driver/Src/stm32f1xx_hal_rtc.c ****       status = HAL_ERROR;
1459:./Drivers/STM32F1xx_HAL_Driver/Src/stm32f1xx_hal_rtc.c ****     }
1460:./Drivers/STM32F1xx_HAL_Driver/Src/stm32f1xx_hal_rtc.c ****   }
1461:./Drivers/STM32F1xx_HAL_Driver/Src/stm32f1xx_hal_rtc.c **** 
1462:./Drivers/STM32F1xx_HAL_Driver/Src/stm32f1xx_hal_rtc.c ****   return status;
1463:./Drivers/STM32F1xx_HAL_Driver/Src/stm32f1xx_hal_rtc.c **** }
1464:./Drivers/STM32F1xx_HAL_Driver/Src/stm32f1xx_hal_rtc.c **** 
1465:./Drivers/STM32F1xx_HAL_Driver/Src/stm32f1xx_hal_rtc.c **** /**
1466:./Drivers/STM32F1xx_HAL_Driver/Src/stm32f1xx_hal_rtc.c ****   * @brief  Enters the RTC Initialization mode.
1467:./Drivers/STM32F1xx_HAL_Driver/Src/stm32f1xx_hal_rtc.c ****   * @param  hrtc   pointer to a RTC_HandleTypeDef structure that contains
1468:./Drivers/STM32F1xx_HAL_Driver/Src/stm32f1xx_hal_rtc.c ****   *                the configuration information for RTC.
1469:./Drivers/STM32F1xx_HAL_Driver/Src/stm32f1xx_hal_rtc.c ****   * @retval HAL status
1470:./Drivers/STM32F1xx_HAL_Driver/Src/stm32f1xx_hal_rtc.c ****   */
1471:./Drivers/STM32F1xx_HAL_Driver/Src/stm32f1xx_hal_rtc.c **** static HAL_StatusTypeDef RTC_EnterInitMode(RTC_HandleTypeDef* hrtc)
1472:./Drivers/STM32F1xx_HAL_Driver/Src/stm32f1xx_hal_rtc.c **** {
1473:./Drivers/STM32F1xx_HAL_Driver/Src/stm32f1xx_hal_rtc.c ****   uint32_t tickstart = 0U;
1474:./Drivers/STM32F1xx_HAL_Driver/Src/stm32f1xx_hal_rtc.c ****   
1475:./Drivers/STM32F1xx_HAL_Driver/Src/stm32f1xx_hal_rtc.c ****   tickstart = HAL_GetTick();
1476:./Drivers/STM32F1xx_HAL_Driver/Src/stm32f1xx_hal_rtc.c ****   /* Wait till RTC is in INIT state and if Time out is reached exit */
1477:./Drivers/STM32F1xx_HAL_Driver/Src/stm32f1xx_hal_rtc.c ****   while((hrtc->Instance->CRL & RTC_CRL_RTOFF) == (uint32_t)RESET)
1478:./Drivers/STM32F1xx_HAL_Driver/Src/stm32f1xx_hal_rtc.c ****   {
1479:./Drivers/STM32F1xx_HAL_Driver/Src/stm32f1xx_hal_rtc.c ****     if((HAL_GetTick() - tickstart) >  RTC_TIMEOUT_VALUE)
1480:./Drivers/STM32F1xx_HAL_Driver/Src/stm32f1xx_hal_rtc.c ****     {       
1481:./Drivers/STM32F1xx_HAL_Driver/Src/stm32f1xx_hal_rtc.c ****       return HAL_TIMEOUT;
1482:./Drivers/STM32F1xx_HAL_Driver/Src/stm32f1xx_hal_rtc.c ****     } 
1483:./Drivers/STM32F1xx_HAL_Driver/Src/stm32f1xx_hal_rtc.c ****   }
1484:./Drivers/STM32F1xx_HAL_Driver/Src/stm32f1xx_hal_rtc.c **** 
1485:./Drivers/STM32F1xx_HAL_Driver/Src/stm32f1xx_hal_rtc.c ****   /* Disable the write protection for RTC registers */
1486:./Drivers/STM32F1xx_HAL_Driver/Src/stm32f1xx_hal_rtc.c ****   __HAL_RTC_WRITEPROTECTION_DISABLE(hrtc);
ARM GAS  /tmp/ccTzASZE.s 			page 29


1487:./Drivers/STM32F1xx_HAL_Driver/Src/stm32f1xx_hal_rtc.c ****   
1488:./Drivers/STM32F1xx_HAL_Driver/Src/stm32f1xx_hal_rtc.c ****   
1489:./Drivers/STM32F1xx_HAL_Driver/Src/stm32f1xx_hal_rtc.c ****   return HAL_OK;  
1490:./Drivers/STM32F1xx_HAL_Driver/Src/stm32f1xx_hal_rtc.c **** }
1491:./Drivers/STM32F1xx_HAL_Driver/Src/stm32f1xx_hal_rtc.c **** 
1492:./Drivers/STM32F1xx_HAL_Driver/Src/stm32f1xx_hal_rtc.c **** /**
1493:./Drivers/STM32F1xx_HAL_Driver/Src/stm32f1xx_hal_rtc.c ****   * @brief  Exit the RTC Initialization mode.
1494:./Drivers/STM32F1xx_HAL_Driver/Src/stm32f1xx_hal_rtc.c ****   * @param  hrtc   pointer to a RTC_HandleTypeDef structure that contains
1495:./Drivers/STM32F1xx_HAL_Driver/Src/stm32f1xx_hal_rtc.c ****   *                the configuration information for RTC.
1496:./Drivers/STM32F1xx_HAL_Driver/Src/stm32f1xx_hal_rtc.c ****   * @retval HAL status
1497:./Drivers/STM32F1xx_HAL_Driver/Src/stm32f1xx_hal_rtc.c ****   */
1498:./Drivers/STM32F1xx_HAL_Driver/Src/stm32f1xx_hal_rtc.c **** static HAL_StatusTypeDef RTC_ExitInitMode(RTC_HandleTypeDef* hrtc)
1499:./Drivers/STM32F1xx_HAL_Driver/Src/stm32f1xx_hal_rtc.c **** {
1500:./Drivers/STM32F1xx_HAL_Driver/Src/stm32f1xx_hal_rtc.c ****   uint32_t tickstart = 0U;
1501:./Drivers/STM32F1xx_HAL_Driver/Src/stm32f1xx_hal_rtc.c ****   
1502:./Drivers/STM32F1xx_HAL_Driver/Src/stm32f1xx_hal_rtc.c ****   /* Disable the write protection for RTC registers */
1503:./Drivers/STM32F1xx_HAL_Driver/Src/stm32f1xx_hal_rtc.c ****   __HAL_RTC_WRITEPROTECTION_ENABLE(hrtc);
1504:./Drivers/STM32F1xx_HAL_Driver/Src/stm32f1xx_hal_rtc.c ****   
1505:./Drivers/STM32F1xx_HAL_Driver/Src/stm32f1xx_hal_rtc.c ****   tickstart = HAL_GetTick();
1506:./Drivers/STM32F1xx_HAL_Driver/Src/stm32f1xx_hal_rtc.c ****   /* Wait till RTC is in INIT state and if Time out is reached exit */
1507:./Drivers/STM32F1xx_HAL_Driver/Src/stm32f1xx_hal_rtc.c ****   while((hrtc->Instance->CRL & RTC_CRL_RTOFF) == (uint32_t)RESET)
1508:./Drivers/STM32F1xx_HAL_Driver/Src/stm32f1xx_hal_rtc.c ****   {
1509:./Drivers/STM32F1xx_HAL_Driver/Src/stm32f1xx_hal_rtc.c ****     if((HAL_GetTick() - tickstart) >  RTC_TIMEOUT_VALUE)
1510:./Drivers/STM32F1xx_HAL_Driver/Src/stm32f1xx_hal_rtc.c ****     {       
1511:./Drivers/STM32F1xx_HAL_Driver/Src/stm32f1xx_hal_rtc.c ****       return HAL_TIMEOUT;
1512:./Drivers/STM32F1xx_HAL_Driver/Src/stm32f1xx_hal_rtc.c ****     } 
1513:./Drivers/STM32F1xx_HAL_Driver/Src/stm32f1xx_hal_rtc.c ****   }
1514:./Drivers/STM32F1xx_HAL_Driver/Src/stm32f1xx_hal_rtc.c ****   
1515:./Drivers/STM32F1xx_HAL_Driver/Src/stm32f1xx_hal_rtc.c ****   return HAL_OK;  
1516:./Drivers/STM32F1xx_HAL_Driver/Src/stm32f1xx_hal_rtc.c **** }
1517:./Drivers/STM32F1xx_HAL_Driver/Src/stm32f1xx_hal_rtc.c **** 
1518:./Drivers/STM32F1xx_HAL_Driver/Src/stm32f1xx_hal_rtc.c **** /**
1519:./Drivers/STM32F1xx_HAL_Driver/Src/stm32f1xx_hal_rtc.c ****   * @brief  Converts a 2 digit decimal to BCD format.
1520:./Drivers/STM32F1xx_HAL_Driver/Src/stm32f1xx_hal_rtc.c ****   * @param  Value: Byte to be converted
1521:./Drivers/STM32F1xx_HAL_Driver/Src/stm32f1xx_hal_rtc.c ****   * @retval Converted byte
1522:./Drivers/STM32F1xx_HAL_Driver/Src/stm32f1xx_hal_rtc.c ****   */
1523:./Drivers/STM32F1xx_HAL_Driver/Src/stm32f1xx_hal_rtc.c **** static uint8_t RTC_ByteToBcd2(uint8_t Value)
1524:./Drivers/STM32F1xx_HAL_Driver/Src/stm32f1xx_hal_rtc.c **** {
 116              		.loc 1 1524 0
 117              		.cfi_startproc
 118              		@ args = 0, pretend = 0, frame = 0
 119              		@ frame_needed = 0, uses_anonymous_args = 0
 120              		@ link register save eliminated.
 121              	.LVL15:
1525:./Drivers/STM32F1xx_HAL_Driver/Src/stm32f1xx_hal_rtc.c ****   uint32_t bcdhigh = 0U;
 122              		.loc 1 1525 0
 123 0000 0023     		movs	r3, #0
1526:./Drivers/STM32F1xx_HAL_Driver/Src/stm32f1xx_hal_rtc.c ****   
1527:./Drivers/STM32F1xx_HAL_Driver/Src/stm32f1xx_hal_rtc.c ****   while(Value >= 10U)
 124              		.loc 1 1527 0
 125 0002 02E0     		b	.L7
 126              	.LVL16:
 127              	.L8:
1528:./Drivers/STM32F1xx_HAL_Driver/Src/stm32f1xx_hal_rtc.c ****   {
1529:./Drivers/STM32F1xx_HAL_Driver/Src/stm32f1xx_hal_rtc.c ****     bcdhigh++;
 128              		.loc 1 1529 0
 129 0004 0133     		adds	r3, r3, #1
ARM GAS  /tmp/ccTzASZE.s 			page 30


 130              	.LVL17:
1530:./Drivers/STM32F1xx_HAL_Driver/Src/stm32f1xx_hal_rtc.c ****     Value -= 10U;
 131              		.loc 1 1530 0
 132 0006 0A38     		subs	r0, r0, #10
 133              	.LVL18:
 134 0008 C0B2     		uxtb	r0, r0
 135              	.LVL19:
 136              	.L7:
1527:./Drivers/STM32F1xx_HAL_Driver/Src/stm32f1xx_hal_rtc.c ****   {
 137              		.loc 1 1527 0
 138 000a 0928     		cmp	r0, #9
 139 000c FAD8     		bhi	.L8
1531:./Drivers/STM32F1xx_HAL_Driver/Src/stm32f1xx_hal_rtc.c ****   }
1532:./Drivers/STM32F1xx_HAL_Driver/Src/stm32f1xx_hal_rtc.c ****   
1533:./Drivers/STM32F1xx_HAL_Driver/Src/stm32f1xx_hal_rtc.c ****   return  ((uint8_t)(bcdhigh << 4U) | Value);
 140              		.loc 1 1533 0
 141 000e 1B01     		lsls	r3, r3, #4
 142              	.LVL20:
 143 0010 DBB2     		uxtb	r3, r3
1534:./Drivers/STM32F1xx_HAL_Driver/Src/stm32f1xx_hal_rtc.c **** }
 144              		.loc 1 1534 0
 145 0012 1843     		orrs	r0, r0, r3
 146              	.LVL21:
 147 0014 7047     		bx	lr
 148              		.cfi_endproc
 149              	.LFE87:
 151 0016 00BF     		.section	.text.RTC_Bcd2ToByte,"ax",%progbits
 152              		.align	2
 153              		.thumb
 154              		.thumb_func
 156              	RTC_Bcd2ToByte:
 157              	.LFB88:
1535:./Drivers/STM32F1xx_HAL_Driver/Src/stm32f1xx_hal_rtc.c **** 
1536:./Drivers/STM32F1xx_HAL_Driver/Src/stm32f1xx_hal_rtc.c **** /**
1537:./Drivers/STM32F1xx_HAL_Driver/Src/stm32f1xx_hal_rtc.c ****   * @brief  Converts from 2 digit BCD to Binary.
1538:./Drivers/STM32F1xx_HAL_Driver/Src/stm32f1xx_hal_rtc.c ****   * @param  Value: BCD value to be converted
1539:./Drivers/STM32F1xx_HAL_Driver/Src/stm32f1xx_hal_rtc.c ****   * @retval Converted word
1540:./Drivers/STM32F1xx_HAL_Driver/Src/stm32f1xx_hal_rtc.c ****   */
1541:./Drivers/STM32F1xx_HAL_Driver/Src/stm32f1xx_hal_rtc.c **** static uint8_t RTC_Bcd2ToByte(uint8_t Value)
1542:./Drivers/STM32F1xx_HAL_Driver/Src/stm32f1xx_hal_rtc.c **** {
 158              		.loc 1 1542 0
 159              		.cfi_startproc
 160              		@ args = 0, pretend = 0, frame = 0
 161              		@ frame_needed = 0, uses_anonymous_args = 0
 162              		@ link register save eliminated.
 163              	.LVL22:
1543:./Drivers/STM32F1xx_HAL_Driver/Src/stm32f1xx_hal_rtc.c ****   uint32_t tmp = 0U;
1544:./Drivers/STM32F1xx_HAL_Driver/Src/stm32f1xx_hal_rtc.c ****   tmp = ((uint8_t)(Value & (uint8_t)0xF0) >> (uint8_t)0x4) * 10U;
 164              		.loc 1 1544 0
 165 0000 0309     		lsrs	r3, r0, #4
 166 0002 03EB8303 		add	r3, r3, r3, lsl #2
 167 0006 5A00     		lsls	r2, r3, #1
 168              	.LVL23:
1545:./Drivers/STM32F1xx_HAL_Driver/Src/stm32f1xx_hal_rtc.c ****   return (tmp + (Value & (uint8_t)0x0F));
 169              		.loc 1 1545 0
 170 0008 00F00F00 		and	r0, r0, #15
 171              	.LVL24:
ARM GAS  /tmp/ccTzASZE.s 			page 31


 172 000c 1044     		add	r0, r0, r2
1546:./Drivers/STM32F1xx_HAL_Driver/Src/stm32f1xx_hal_rtc.c **** }
 173              		.loc 1 1546 0
 174 000e C0B2     		uxtb	r0, r0
 175 0010 7047     		bx	lr
 176              		.cfi_endproc
 177              	.LFE88:
 179 0012 00BF     		.section	.text.RTC_IsLeapYear,"ax",%progbits
 180              		.align	2
 181              		.thumb
 182              		.thumb_func
 184              	RTC_IsLeapYear:
 185              	.LFB90:
1547:./Drivers/STM32F1xx_HAL_Driver/Src/stm32f1xx_hal_rtc.c **** 
1548:./Drivers/STM32F1xx_HAL_Driver/Src/stm32f1xx_hal_rtc.c **** /**
1549:./Drivers/STM32F1xx_HAL_Driver/Src/stm32f1xx_hal_rtc.c ****   * @brief  Updates date when time is 23:59:59.
1550:./Drivers/STM32F1xx_HAL_Driver/Src/stm32f1xx_hal_rtc.c ****   * @param  hrtc   pointer to a RTC_HandleTypeDef structure that contains
1551:./Drivers/STM32F1xx_HAL_Driver/Src/stm32f1xx_hal_rtc.c ****   *                the configuration information for RTC.
1552:./Drivers/STM32F1xx_HAL_Driver/Src/stm32f1xx_hal_rtc.c ****   * @param  DayElapsed: Number of days elapsed from last date update
1553:./Drivers/STM32F1xx_HAL_Driver/Src/stm32f1xx_hal_rtc.c ****   * @retval None
1554:./Drivers/STM32F1xx_HAL_Driver/Src/stm32f1xx_hal_rtc.c ****   */
1555:./Drivers/STM32F1xx_HAL_Driver/Src/stm32f1xx_hal_rtc.c **** static void RTC_DateUpdate(RTC_HandleTypeDef* hrtc, uint32_t DayElapsed)
1556:./Drivers/STM32F1xx_HAL_Driver/Src/stm32f1xx_hal_rtc.c **** {
1557:./Drivers/STM32F1xx_HAL_Driver/Src/stm32f1xx_hal_rtc.c ****   uint32_t year = 0U, month = 0U, day = 0U;
1558:./Drivers/STM32F1xx_HAL_Driver/Src/stm32f1xx_hal_rtc.c ****   uint32_t loop = 0U;
1559:./Drivers/STM32F1xx_HAL_Driver/Src/stm32f1xx_hal_rtc.c **** 
1560:./Drivers/STM32F1xx_HAL_Driver/Src/stm32f1xx_hal_rtc.c ****   /* Get the current year*/
1561:./Drivers/STM32F1xx_HAL_Driver/Src/stm32f1xx_hal_rtc.c ****   year = hrtc->DateToUpdate.Year;
1562:./Drivers/STM32F1xx_HAL_Driver/Src/stm32f1xx_hal_rtc.c **** 
1563:./Drivers/STM32F1xx_HAL_Driver/Src/stm32f1xx_hal_rtc.c ****   /* Get the current month and day */
1564:./Drivers/STM32F1xx_HAL_Driver/Src/stm32f1xx_hal_rtc.c ****   month = hrtc->DateToUpdate.Month;
1565:./Drivers/STM32F1xx_HAL_Driver/Src/stm32f1xx_hal_rtc.c ****   day = hrtc->DateToUpdate.Date;
1566:./Drivers/STM32F1xx_HAL_Driver/Src/stm32f1xx_hal_rtc.c **** 
1567:./Drivers/STM32F1xx_HAL_Driver/Src/stm32f1xx_hal_rtc.c ****   for (loop = 0U; loop < DayElapsed; loop++)
1568:./Drivers/STM32F1xx_HAL_Driver/Src/stm32f1xx_hal_rtc.c ****   {
1569:./Drivers/STM32F1xx_HAL_Driver/Src/stm32f1xx_hal_rtc.c ****     if((month == 1U) || (month == 3U) || (month == 5U) || (month == 7U) || \
1570:./Drivers/STM32F1xx_HAL_Driver/Src/stm32f1xx_hal_rtc.c ****        (month == 8U) || (month == 10U) || (month == 12U))
1571:./Drivers/STM32F1xx_HAL_Driver/Src/stm32f1xx_hal_rtc.c ****     {
1572:./Drivers/STM32F1xx_HAL_Driver/Src/stm32f1xx_hal_rtc.c ****       if(day < 31U)
1573:./Drivers/STM32F1xx_HAL_Driver/Src/stm32f1xx_hal_rtc.c ****       {
1574:./Drivers/STM32F1xx_HAL_Driver/Src/stm32f1xx_hal_rtc.c ****         day++;
1575:./Drivers/STM32F1xx_HAL_Driver/Src/stm32f1xx_hal_rtc.c ****       }
1576:./Drivers/STM32F1xx_HAL_Driver/Src/stm32f1xx_hal_rtc.c ****       /* Date structure member: day = 31 */
1577:./Drivers/STM32F1xx_HAL_Driver/Src/stm32f1xx_hal_rtc.c ****       else
1578:./Drivers/STM32F1xx_HAL_Driver/Src/stm32f1xx_hal_rtc.c ****       {
1579:./Drivers/STM32F1xx_HAL_Driver/Src/stm32f1xx_hal_rtc.c ****         if(month != 12U)
1580:./Drivers/STM32F1xx_HAL_Driver/Src/stm32f1xx_hal_rtc.c ****         {
1581:./Drivers/STM32F1xx_HAL_Driver/Src/stm32f1xx_hal_rtc.c ****           month++;
1582:./Drivers/STM32F1xx_HAL_Driver/Src/stm32f1xx_hal_rtc.c ****           day = 1U;
1583:./Drivers/STM32F1xx_HAL_Driver/Src/stm32f1xx_hal_rtc.c ****         }
1584:./Drivers/STM32F1xx_HAL_Driver/Src/stm32f1xx_hal_rtc.c ****         /* Date structure member: day = 31 & month =12 */
1585:./Drivers/STM32F1xx_HAL_Driver/Src/stm32f1xx_hal_rtc.c ****         else
1586:./Drivers/STM32F1xx_HAL_Driver/Src/stm32f1xx_hal_rtc.c ****         {
1587:./Drivers/STM32F1xx_HAL_Driver/Src/stm32f1xx_hal_rtc.c ****           month = 1U;
1588:./Drivers/STM32F1xx_HAL_Driver/Src/stm32f1xx_hal_rtc.c ****           day = 1U;
1589:./Drivers/STM32F1xx_HAL_Driver/Src/stm32f1xx_hal_rtc.c ****           year++;
1590:./Drivers/STM32F1xx_HAL_Driver/Src/stm32f1xx_hal_rtc.c ****         }
ARM GAS  /tmp/ccTzASZE.s 			page 32


1591:./Drivers/STM32F1xx_HAL_Driver/Src/stm32f1xx_hal_rtc.c ****       }
1592:./Drivers/STM32F1xx_HAL_Driver/Src/stm32f1xx_hal_rtc.c ****     }
1593:./Drivers/STM32F1xx_HAL_Driver/Src/stm32f1xx_hal_rtc.c ****     else if((month == 4U) || (month == 6U) || (month == 9U) || (month == 11U))
1594:./Drivers/STM32F1xx_HAL_Driver/Src/stm32f1xx_hal_rtc.c ****     {
1595:./Drivers/STM32F1xx_HAL_Driver/Src/stm32f1xx_hal_rtc.c ****       if(day < 30U)
1596:./Drivers/STM32F1xx_HAL_Driver/Src/stm32f1xx_hal_rtc.c ****       {
1597:./Drivers/STM32F1xx_HAL_Driver/Src/stm32f1xx_hal_rtc.c ****         day++;
1598:./Drivers/STM32F1xx_HAL_Driver/Src/stm32f1xx_hal_rtc.c ****       }
1599:./Drivers/STM32F1xx_HAL_Driver/Src/stm32f1xx_hal_rtc.c ****       /* Date structure member: day = 30 */
1600:./Drivers/STM32F1xx_HAL_Driver/Src/stm32f1xx_hal_rtc.c ****       else
1601:./Drivers/STM32F1xx_HAL_Driver/Src/stm32f1xx_hal_rtc.c ****       {
1602:./Drivers/STM32F1xx_HAL_Driver/Src/stm32f1xx_hal_rtc.c ****         month++;
1603:./Drivers/STM32F1xx_HAL_Driver/Src/stm32f1xx_hal_rtc.c ****         day = 1U;
1604:./Drivers/STM32F1xx_HAL_Driver/Src/stm32f1xx_hal_rtc.c ****       }
1605:./Drivers/STM32F1xx_HAL_Driver/Src/stm32f1xx_hal_rtc.c ****     }
1606:./Drivers/STM32F1xx_HAL_Driver/Src/stm32f1xx_hal_rtc.c ****     else if(month == 2U)
1607:./Drivers/STM32F1xx_HAL_Driver/Src/stm32f1xx_hal_rtc.c ****     {
1608:./Drivers/STM32F1xx_HAL_Driver/Src/stm32f1xx_hal_rtc.c ****       if(day < 28U)
1609:./Drivers/STM32F1xx_HAL_Driver/Src/stm32f1xx_hal_rtc.c ****       {
1610:./Drivers/STM32F1xx_HAL_Driver/Src/stm32f1xx_hal_rtc.c ****         day++;
1611:./Drivers/STM32F1xx_HAL_Driver/Src/stm32f1xx_hal_rtc.c ****       }
1612:./Drivers/STM32F1xx_HAL_Driver/Src/stm32f1xx_hal_rtc.c ****       else if(day == 28U)
1613:./Drivers/STM32F1xx_HAL_Driver/Src/stm32f1xx_hal_rtc.c ****       {
1614:./Drivers/STM32F1xx_HAL_Driver/Src/stm32f1xx_hal_rtc.c ****         /* Leap year */
1615:./Drivers/STM32F1xx_HAL_Driver/Src/stm32f1xx_hal_rtc.c ****         if(RTC_IsLeapYear(year))
1616:./Drivers/STM32F1xx_HAL_Driver/Src/stm32f1xx_hal_rtc.c ****         {
1617:./Drivers/STM32F1xx_HAL_Driver/Src/stm32f1xx_hal_rtc.c ****           day++;
1618:./Drivers/STM32F1xx_HAL_Driver/Src/stm32f1xx_hal_rtc.c ****         }
1619:./Drivers/STM32F1xx_HAL_Driver/Src/stm32f1xx_hal_rtc.c ****         else
1620:./Drivers/STM32F1xx_HAL_Driver/Src/stm32f1xx_hal_rtc.c ****         {
1621:./Drivers/STM32F1xx_HAL_Driver/Src/stm32f1xx_hal_rtc.c ****           month++;
1622:./Drivers/STM32F1xx_HAL_Driver/Src/stm32f1xx_hal_rtc.c ****           day = 1U;
1623:./Drivers/STM32F1xx_HAL_Driver/Src/stm32f1xx_hal_rtc.c ****         }
1624:./Drivers/STM32F1xx_HAL_Driver/Src/stm32f1xx_hal_rtc.c ****       }
1625:./Drivers/STM32F1xx_HAL_Driver/Src/stm32f1xx_hal_rtc.c ****       else if(day == 29U)
1626:./Drivers/STM32F1xx_HAL_Driver/Src/stm32f1xx_hal_rtc.c ****       {
1627:./Drivers/STM32F1xx_HAL_Driver/Src/stm32f1xx_hal_rtc.c ****         month++;
1628:./Drivers/STM32F1xx_HAL_Driver/Src/stm32f1xx_hal_rtc.c ****         day = 1U;
1629:./Drivers/STM32F1xx_HAL_Driver/Src/stm32f1xx_hal_rtc.c ****       }
1630:./Drivers/STM32F1xx_HAL_Driver/Src/stm32f1xx_hal_rtc.c ****     }
1631:./Drivers/STM32F1xx_HAL_Driver/Src/stm32f1xx_hal_rtc.c ****   }
1632:./Drivers/STM32F1xx_HAL_Driver/Src/stm32f1xx_hal_rtc.c **** 
1633:./Drivers/STM32F1xx_HAL_Driver/Src/stm32f1xx_hal_rtc.c ****   /* Update year */
1634:./Drivers/STM32F1xx_HAL_Driver/Src/stm32f1xx_hal_rtc.c ****   hrtc->DateToUpdate.Year = year;
1635:./Drivers/STM32F1xx_HAL_Driver/Src/stm32f1xx_hal_rtc.c **** 
1636:./Drivers/STM32F1xx_HAL_Driver/Src/stm32f1xx_hal_rtc.c ****   /* Update day and month */
1637:./Drivers/STM32F1xx_HAL_Driver/Src/stm32f1xx_hal_rtc.c ****   hrtc->DateToUpdate.Month = month;
1638:./Drivers/STM32F1xx_HAL_Driver/Src/stm32f1xx_hal_rtc.c ****   hrtc->DateToUpdate.Date = day;
1639:./Drivers/STM32F1xx_HAL_Driver/Src/stm32f1xx_hal_rtc.c **** 
1640:./Drivers/STM32F1xx_HAL_Driver/Src/stm32f1xx_hal_rtc.c ****   /* Update day of the week */
1641:./Drivers/STM32F1xx_HAL_Driver/Src/stm32f1xx_hal_rtc.c ****   hrtc->DateToUpdate.WeekDay = RTC_WeekDayNum(year, month, day);
1642:./Drivers/STM32F1xx_HAL_Driver/Src/stm32f1xx_hal_rtc.c **** }
1643:./Drivers/STM32F1xx_HAL_Driver/Src/stm32f1xx_hal_rtc.c **** 
1644:./Drivers/STM32F1xx_HAL_Driver/Src/stm32f1xx_hal_rtc.c **** /**
1645:./Drivers/STM32F1xx_HAL_Driver/Src/stm32f1xx_hal_rtc.c ****   * @brief  Check whether the passed year is Leap or not.
1646:./Drivers/STM32F1xx_HAL_Driver/Src/stm32f1xx_hal_rtc.c ****   * @param  nYear  year to check
1647:./Drivers/STM32F1xx_HAL_Driver/Src/stm32f1xx_hal_rtc.c ****   * @retval 1: leap year
ARM GAS  /tmp/ccTzASZE.s 			page 33


1648:./Drivers/STM32F1xx_HAL_Driver/Src/stm32f1xx_hal_rtc.c ****   *         0: not leap year
1649:./Drivers/STM32F1xx_HAL_Driver/Src/stm32f1xx_hal_rtc.c ****   */
1650:./Drivers/STM32F1xx_HAL_Driver/Src/stm32f1xx_hal_rtc.c **** static uint8_t RTC_IsLeapYear(uint16_t nYear)
1651:./Drivers/STM32F1xx_HAL_Driver/Src/stm32f1xx_hal_rtc.c **** {
 186              		.loc 1 1651 0
 187              		.cfi_startproc
 188              		@ args = 0, pretend = 0, frame = 0
 189              		@ frame_needed = 0, uses_anonymous_args = 0
 190              		@ link register save eliminated.
 191              	.LVL25:
1652:./Drivers/STM32F1xx_HAL_Driver/Src/stm32f1xx_hal_rtc.c ****   if((nYear % 4U) != 0U) 
 192              		.loc 1 1652 0
 193 0000 10F0030F 		tst	r0, #3
 194 0004 14D1     		bne	.L12
1653:./Drivers/STM32F1xx_HAL_Driver/Src/stm32f1xx_hal_rtc.c ****   {
1654:./Drivers/STM32F1xx_HAL_Driver/Src/stm32f1xx_hal_rtc.c ****     return 0U;
1655:./Drivers/STM32F1xx_HAL_Driver/Src/stm32f1xx_hal_rtc.c ****   }
1656:./Drivers/STM32F1xx_HAL_Driver/Src/stm32f1xx_hal_rtc.c ****   
1657:./Drivers/STM32F1xx_HAL_Driver/Src/stm32f1xx_hal_rtc.c ****   if((nYear % 100U) != 0U) 
 195              		.loc 1 1657 0
 196 0006 0D4B     		ldr	r3, .L15
 197 0008 A3FB0023 		umull	r2, r3, r3, r0
 198 000c 5B09     		lsrs	r3, r3, #5
 199 000e 6422     		movs	r2, #100
 200 0010 02FB1303 		mls	r3, r2, r3, r0
 201 0014 9BB2     		uxth	r3, r3
 202 0016 6BB9     		cbnz	r3, .L13
1658:./Drivers/STM32F1xx_HAL_Driver/Src/stm32f1xx_hal_rtc.c ****   {
1659:./Drivers/STM32F1xx_HAL_Driver/Src/stm32f1xx_hal_rtc.c ****     return 1U;
1660:./Drivers/STM32F1xx_HAL_Driver/Src/stm32f1xx_hal_rtc.c ****   }
1661:./Drivers/STM32F1xx_HAL_Driver/Src/stm32f1xx_hal_rtc.c ****   
1662:./Drivers/STM32F1xx_HAL_Driver/Src/stm32f1xx_hal_rtc.c ****   if((nYear % 400U) == 0U)
 203              		.loc 1 1662 0
 204 0018 084B     		ldr	r3, .L15
 205 001a A3FB0023 		umull	r2, r3, r3, r0
 206 001e DB09     		lsrs	r3, r3, #7
 207 0020 4FF4C872 		mov	r2, #400
 208 0024 02FB1300 		mls	r0, r2, r3, r0
 209              	.LVL26:
 210 0028 80B2     		uxth	r0, r0
 211 002a 28B9     		cbnz	r0, .L14
1663:./Drivers/STM32F1xx_HAL_Driver/Src/stm32f1xx_hal_rtc.c ****   {
1664:./Drivers/STM32F1xx_HAL_Driver/Src/stm32f1xx_hal_rtc.c ****     return 1U;
 212              		.loc 1 1664 0
 213 002c 0120     		movs	r0, #1
 214 002e 7047     		bx	lr
 215              	.LVL27:
 216              	.L12:
1654:./Drivers/STM32F1xx_HAL_Driver/Src/stm32f1xx_hal_rtc.c ****   }
 217              		.loc 1 1654 0
 218 0030 0020     		movs	r0, #0
 219              	.LVL28:
 220 0032 7047     		bx	lr
 221              	.LVL29:
 222              	.L13:
1659:./Drivers/STM32F1xx_HAL_Driver/Src/stm32f1xx_hal_rtc.c ****   }
 223              		.loc 1 1659 0
ARM GAS  /tmp/ccTzASZE.s 			page 34


 224 0034 0120     		movs	r0, #1
 225              	.LVL30:
 226 0036 7047     		bx	lr
 227              	.L14:
1665:./Drivers/STM32F1xx_HAL_Driver/Src/stm32f1xx_hal_rtc.c ****   }
1666:./Drivers/STM32F1xx_HAL_Driver/Src/stm32f1xx_hal_rtc.c ****   else
1667:./Drivers/STM32F1xx_HAL_Driver/Src/stm32f1xx_hal_rtc.c ****   {
1668:./Drivers/STM32F1xx_HAL_Driver/Src/stm32f1xx_hal_rtc.c ****     return 0U;
 228              		.loc 1 1668 0
 229 0038 0020     		movs	r0, #0
1669:./Drivers/STM32F1xx_HAL_Driver/Src/stm32f1xx_hal_rtc.c ****   }
1670:./Drivers/STM32F1xx_HAL_Driver/Src/stm32f1xx_hal_rtc.c **** }
 230              		.loc 1 1670 0
 231 003a 7047     		bx	lr
 232              	.L16:
 233              		.align	2
 234              	.L15:
 235 003c 1F85EB51 		.word	1374389535
 236              		.cfi_endproc
 237              	.LFE90:
 239              		.section	.text.RTC_WeekDayNum,"ax",%progbits
 240              		.align	2
 241              		.thumb
 242              		.thumb_func
 244              	RTC_WeekDayNum:
 245              	.LFB91:
1671:./Drivers/STM32F1xx_HAL_Driver/Src/stm32f1xx_hal_rtc.c **** 
1672:./Drivers/STM32F1xx_HAL_Driver/Src/stm32f1xx_hal_rtc.c **** /**
1673:./Drivers/STM32F1xx_HAL_Driver/Src/stm32f1xx_hal_rtc.c ****   * @brief  Determines the week number, the day number and the week day number.
1674:./Drivers/STM32F1xx_HAL_Driver/Src/stm32f1xx_hal_rtc.c ****   * @param  nYear   year to check
1675:./Drivers/STM32F1xx_HAL_Driver/Src/stm32f1xx_hal_rtc.c ****   * @param  nMonth  Month to check
1676:./Drivers/STM32F1xx_HAL_Driver/Src/stm32f1xx_hal_rtc.c ****   * @param  nDay    Day to check
1677:./Drivers/STM32F1xx_HAL_Driver/Src/stm32f1xx_hal_rtc.c ****   * @note   Day is calculated with hypothesis that year > 2000
1678:./Drivers/STM32F1xx_HAL_Driver/Src/stm32f1xx_hal_rtc.c ****   * @retval Value which can take one of the following parameters:
1679:./Drivers/STM32F1xx_HAL_Driver/Src/stm32f1xx_hal_rtc.c ****   *         @arg RTC_WEEKDAY_MONDAY
1680:./Drivers/STM32F1xx_HAL_Driver/Src/stm32f1xx_hal_rtc.c ****   *         @arg RTC_WEEKDAY_TUESDAY
1681:./Drivers/STM32F1xx_HAL_Driver/Src/stm32f1xx_hal_rtc.c ****   *         @arg RTC_WEEKDAY_WEDNESDAY
1682:./Drivers/STM32F1xx_HAL_Driver/Src/stm32f1xx_hal_rtc.c ****   *         @arg RTC_WEEKDAY_THURSDAY
1683:./Drivers/STM32F1xx_HAL_Driver/Src/stm32f1xx_hal_rtc.c ****   *         @arg RTC_WEEKDAY_FRIDAY
1684:./Drivers/STM32F1xx_HAL_Driver/Src/stm32f1xx_hal_rtc.c ****   *         @arg RTC_WEEKDAY_SATURDAY
1685:./Drivers/STM32F1xx_HAL_Driver/Src/stm32f1xx_hal_rtc.c ****   *         @arg RTC_WEEKDAY_SUNDAY
1686:./Drivers/STM32F1xx_HAL_Driver/Src/stm32f1xx_hal_rtc.c ****   */
1687:./Drivers/STM32F1xx_HAL_Driver/Src/stm32f1xx_hal_rtc.c **** static uint8_t RTC_WeekDayNum(uint32_t nYear, uint8_t nMonth, uint8_t nDay)
1688:./Drivers/STM32F1xx_HAL_Driver/Src/stm32f1xx_hal_rtc.c **** {
 246              		.loc 1 1688 0
 247              		.cfi_startproc
 248              		@ args = 0, pretend = 0, frame = 0
 249              		@ frame_needed = 0, uses_anonymous_args = 0
 250              		@ link register save eliminated.
 251              	.LVL31:
 252 0000 10B4     		push	{r4}
 253              	.LCFI2:
 254              		.cfi_def_cfa_offset 4
 255              		.cfi_offset 4, -4
 256              	.LVL32:
1689:./Drivers/STM32F1xx_HAL_Driver/Src/stm32f1xx_hal_rtc.c ****   uint32_t year = 0U, weekday = 0U;
1690:./Drivers/STM32F1xx_HAL_Driver/Src/stm32f1xx_hal_rtc.c **** 
ARM GAS  /tmp/ccTzASZE.s 			page 35


1691:./Drivers/STM32F1xx_HAL_Driver/Src/stm32f1xx_hal_rtc.c ****   year = 2000U + nYear;
 257              		.loc 1 1691 0
 258 0002 00F5FA64 		add	r4, r0, #2000
 259              	.LVL33:
1692:./Drivers/STM32F1xx_HAL_Driver/Src/stm32f1xx_hal_rtc.c ****   
1693:./Drivers/STM32F1xx_HAL_Driver/Src/stm32f1xx_hal_rtc.c ****   if(nMonth < 3U)
 260              		.loc 1 1693 0
 261 0006 0229     		cmp	r1, #2
 262 0008 20D8     		bhi	.L18
1694:./Drivers/STM32F1xx_HAL_Driver/Src/stm32f1xx_hal_rtc.c ****   {
1695:./Drivers/STM32F1xx_HAL_Driver/Src/stm32f1xx_hal_rtc.c ****     /*D = { [(23 x month)/9] + day + 4 + year + [(year-1)/4] - [(year-1)/100] + [(year-1)/400] } mo
1696:./Drivers/STM32F1xx_HAL_Driver/Src/stm32f1xx_hal_rtc.c ****     weekday = (((23U * nMonth)/9U) + nDay + 4U + year + ((year-1U)/4U) - ((year-1U)/100U) + ((year-
 263              		.loc 1 1696 0
 264 000a 01EB4103 		add	r3, r1, r1, lsl #1
 265 000e C1EBC301 		rsb	r1, r1, r3, lsl #3
 266              	.LVL34:
 267 0012 1F4B     		ldr	r3, .L21
 268 0014 A3FB0131 		umull	r3, r1, r3, r1
 269 0018 02EB5102 		add	r2, r2, r1, lsr #1
 270              	.LVL35:
 271 001c 2244     		add	r2, r2, r4
 272 001e 00F2CF70 		addw	r0, r0, #1999
 273              	.LVL36:
 274 0022 02EB9002 		add	r2, r2, r0, lsr #2
 275 0026 1B4B     		ldr	r3, .L21+4
 276 0028 A3FB0013 		umull	r1, r3, r3, r0
 277 002c A2EB5312 		sub	r2, r2, r3, lsr #5
 278 0030 02EBD313 		add	r3, r2, r3, lsr #7
 279 0034 0433     		adds	r3, r3, #4
 280 0036 1848     		ldr	r0, .L21+8
 281              	.LVL37:
 282 0038 A3FB0001 		umull	r0, r1, r3, r0
 283 003c 581A     		subs	r0, r3, r1
 284 003e 01EB5000 		add	r0, r1, r0, lsr #1
 285 0042 8008     		lsrs	r0, r0, #2
 286 0044 C0EBC000 		rsb	r0, r0, r0, lsl #3
 287 0048 181A     		subs	r0, r3, r0
 288              	.LVL38:
 289 004a 1DE0     		b	.L19
 290              	.LVL39:
 291              	.L18:
1697:./Drivers/STM32F1xx_HAL_Driver/Src/stm32f1xx_hal_rtc.c ****   }
1698:./Drivers/STM32F1xx_HAL_Driver/Src/stm32f1xx_hal_rtc.c ****   else
1699:./Drivers/STM32F1xx_HAL_Driver/Src/stm32f1xx_hal_rtc.c ****   {
1700:./Drivers/STM32F1xx_HAL_Driver/Src/stm32f1xx_hal_rtc.c ****     /*D = { [(23 x month)/9] + day + 4 + year + [year/4] - [year/100] + [year/400] - 2 } mod 7*/
1701:./Drivers/STM32F1xx_HAL_Driver/Src/stm32f1xx_hal_rtc.c ****     weekday = (((23U * nMonth)/9U) + nDay + 4U + year + (year/4U) - (year/100U) + (year/400U) - 2U 
 292              		.loc 1 1701 0
 293 004c 01EB4103 		add	r3, r1, r1, lsl #1
 294 0050 C1EBC301 		rsb	r1, r1, r3, lsl #3
 295              	.LVL40:
 296 0054 0E4B     		ldr	r3, .L21
 297 0056 A3FB0113 		umull	r1, r3, r3, r1
 298 005a 02EB5302 		add	r2, r2, r3, lsr #1
 299              	.LVL41:
 300 005e A318     		adds	r3, r4, r2
 301 0060 03EB9402 		add	r2, r3, r4, lsr #2
 302 0064 0B4B     		ldr	r3, .L21+4
ARM GAS  /tmp/ccTzASZE.s 			page 36


 303 0066 A3FB0434 		umull	r3, r4, r3, r4
 304              	.LVL42:
 305 006a A2EB5413 		sub	r3, r2, r4, lsr #5
 306 006e 03EBD413 		add	r3, r3, r4, lsr #7
 307 0072 0233     		adds	r3, r3, #2
 308 0074 0848     		ldr	r0, .L21+8
 309              	.LVL43:
 310 0076 A3FB0001 		umull	r0, r1, r3, r0
 311 007a 581A     		subs	r0, r3, r1
 312 007c 01EB5000 		add	r0, r1, r0, lsr #1
 313 0080 8008     		lsrs	r0, r0, #2
 314 0082 C0EBC000 		rsb	r0, r0, r0, lsl #3
 315 0086 181A     		subs	r0, r3, r0
 316              	.LVL44:
 317              	.L19:
1702:./Drivers/STM32F1xx_HAL_Driver/Src/stm32f1xx_hal_rtc.c ****   }
1703:./Drivers/STM32F1xx_HAL_Driver/Src/stm32f1xx_hal_rtc.c **** 
1704:./Drivers/STM32F1xx_HAL_Driver/Src/stm32f1xx_hal_rtc.c ****   return (uint8_t)weekday;
1705:./Drivers/STM32F1xx_HAL_Driver/Src/stm32f1xx_hal_rtc.c **** }
 318              		.loc 1 1705 0
 319 0088 C0B2     		uxtb	r0, r0
 320              	.LVL45:
 321 008a 10BC     		pop	{r4}
 322              	.LCFI3:
 323              		.cfi_restore 4
 324              		.cfi_def_cfa_offset 0
 325 008c 7047     		bx	lr
 326              	.L22:
 327 008e 00BF     		.align	2
 328              	.L21:
 329 0090 398EE338 		.word	954437177
 330 0094 1F85EB51 		.word	1374389535
 331 0098 25499224 		.word	613566757
 332              		.cfi_endproc
 333              	.LFE91:
 335              		.section	.text.RTC_DateUpdate,"ax",%progbits
 336              		.align	2
 337              		.thumb
 338              		.thumb_func
 340              	RTC_DateUpdate:
 341              	.LFB89:
1556:./Drivers/STM32F1xx_HAL_Driver/Src/stm32f1xx_hal_rtc.c ****   uint32_t year = 0U, month = 0U, day = 0U;
 342              		.loc 1 1556 0
 343              		.cfi_startproc
 344              		@ args = 0, pretend = 0, frame = 0
 345              		@ frame_needed = 0, uses_anonymous_args = 0
 346              	.LVL46:
 347 0000 2DE9F843 		push	{r3, r4, r5, r6, r7, r8, r9, lr}
 348              	.LCFI4:
 349              		.cfi_def_cfa_offset 32
 350              		.cfi_offset 3, -32
 351              		.cfi_offset 4, -28
 352              		.cfi_offset 5, -24
 353              		.cfi_offset 6, -20
 354              		.cfi_offset 7, -16
 355              		.cfi_offset 8, -12
 356              		.cfi_offset 9, -8
ARM GAS  /tmp/ccTzASZE.s 			page 37


 357              		.cfi_offset 14, -4
 358 0004 8046     		mov	r8, r0
 359 0006 0F46     		mov	r7, r1
 360              	.LVL47:
1561:./Drivers/STM32F1xx_HAL_Driver/Src/stm32f1xx_hal_rtc.c **** 
 361              		.loc 1 1561 0
 362 0008 90F80F90 		ldrb	r9, [r0, #15]	@ zero_extendqisi2
 363              	.LVL48:
1564:./Drivers/STM32F1xx_HAL_Driver/Src/stm32f1xx_hal_rtc.c ****   day = hrtc->DateToUpdate.Date;
 364              		.loc 1 1564 0
 365 000c 447B     		ldrb	r4, [r0, #13]	@ zero_extendqisi2
 366              	.LVL49:
1565:./Drivers/STM32F1xx_HAL_Driver/Src/stm32f1xx_hal_rtc.c **** 
 367              		.loc 1 1565 0
 368 000e 867B     		ldrb	r6, [r0, #14]	@ zero_extendqisi2
 369              	.LVL50:
1567:./Drivers/STM32F1xx_HAL_Driver/Src/stm32f1xx_hal_rtc.c ****   {
 370              		.loc 1 1567 0
 371 0010 0025     		movs	r5, #0
 372 0012 41E0     		b	.L24
 373              	.LVL51:
 374              	.L36:
1569:./Drivers/STM32F1xx_HAL_Driver/Src/stm32f1xx_hal_rtc.c ****        (month == 8U) || (month == 10U) || (month == 12U))
 375              		.loc 1 1569 0
 376 0014 012C     		cmp	r4, #1
 377 0016 0BD0     		beq	.L25
1569:./Drivers/STM32F1xx_HAL_Driver/Src/stm32f1xx_hal_rtc.c ****        (month == 8U) || (month == 10U) || (month == 12U))
 378              		.loc 1 1569 0 is_stmt 0 discriminator 1
 379 0018 032C     		cmp	r4, #3
 380 001a 09D0     		beq	.L25
1569:./Drivers/STM32F1xx_HAL_Driver/Src/stm32f1xx_hal_rtc.c ****        (month == 8U) || (month == 10U) || (month == 12U))
 381              		.loc 1 1569 0 discriminator 2
 382 001c 052C     		cmp	r4, #5
 383 001e 07D0     		beq	.L25
1569:./Drivers/STM32F1xx_HAL_Driver/Src/stm32f1xx_hal_rtc.c ****        (month == 8U) || (month == 10U) || (month == 12U))
 384              		.loc 1 1569 0 discriminator 3
 385 0020 072C     		cmp	r4, #7
 386 0022 05D0     		beq	.L25
1569:./Drivers/STM32F1xx_HAL_Driver/Src/stm32f1xx_hal_rtc.c ****        (month == 8U) || (month == 10U) || (month == 12U))
 387              		.loc 1 1569 0 discriminator 4
 388 0024 082C     		cmp	r4, #8
 389 0026 03D0     		beq	.L25
1570:./Drivers/STM32F1xx_HAL_Driver/Src/stm32f1xx_hal_rtc.c ****     {
 390              		.loc 1 1570 0 is_stmt 1
 391 0028 0A2C     		cmp	r4, #10
 392 002a 01D0     		beq	.L25
1570:./Drivers/STM32F1xx_HAL_Driver/Src/stm32f1xx_hal_rtc.c ****     {
 393              		.loc 1 1570 0 is_stmt 0 discriminator 1
 394 002c 0C2C     		cmp	r4, #12
 395 002e 0DD1     		bne	.L26
 396              	.L25:
1572:./Drivers/STM32F1xx_HAL_Driver/Src/stm32f1xx_hal_rtc.c ****       {
 397              		.loc 1 1572 0 is_stmt 1
 398 0030 1E2E     		cmp	r6, #30
 399 0032 01D8     		bhi	.L27
1574:./Drivers/STM32F1xx_HAL_Driver/Src/stm32f1xx_hal_rtc.c ****       }
 400              		.loc 1 1574 0
ARM GAS  /tmp/ccTzASZE.s 			page 38


 401 0034 0136     		adds	r6, r6, #1
 402              	.LVL52:
 403 0036 2EE0     		b	.L28
 404              	.L27:
1579:./Drivers/STM32F1xx_HAL_Driver/Src/stm32f1xx_hal_rtc.c ****         {
 405              		.loc 1 1579 0
 406 0038 0C2C     		cmp	r4, #12
 407 003a 02D0     		beq	.L29
1581:./Drivers/STM32F1xx_HAL_Driver/Src/stm32f1xx_hal_rtc.c ****           day = 1U;
 408              		.loc 1 1581 0
 409 003c 0134     		adds	r4, r4, #1
 410              	.LVL53:
1582:./Drivers/STM32F1xx_HAL_Driver/Src/stm32f1xx_hal_rtc.c ****         }
 411              		.loc 1 1582 0
 412 003e 0126     		movs	r6, #1
 413 0040 29E0     		b	.L28
 414              	.LVL54:
 415              	.L29:
1589:./Drivers/STM32F1xx_HAL_Driver/Src/stm32f1xx_hal_rtc.c ****         }
 416              		.loc 1 1589 0
 417 0042 09F10109 		add	r9, r9, #1
 418              	.LVL55:
1588:./Drivers/STM32F1xx_HAL_Driver/Src/stm32f1xx_hal_rtc.c ****           year++;
 419              		.loc 1 1588 0
 420 0046 0126     		movs	r6, #1
1587:./Drivers/STM32F1xx_HAL_Driver/Src/stm32f1xx_hal_rtc.c ****           day = 1U;
 421              		.loc 1 1587 0
 422 0048 3446     		mov	r4, r6
 423 004a 24E0     		b	.L28
 424              	.LVL56:
 425              	.L26:
1593:./Drivers/STM32F1xx_HAL_Driver/Src/stm32f1xx_hal_rtc.c ****     {
 426              		.loc 1 1593 0
 427 004c 042C     		cmp	r4, #4
 428 004e 05D0     		beq	.L30
1593:./Drivers/STM32F1xx_HAL_Driver/Src/stm32f1xx_hal_rtc.c ****     {
 429              		.loc 1 1593 0 is_stmt 0 discriminator 1
 430 0050 062C     		cmp	r4, #6
 431 0052 03D0     		beq	.L30
1593:./Drivers/STM32F1xx_HAL_Driver/Src/stm32f1xx_hal_rtc.c ****     {
 432              		.loc 1 1593 0 discriminator 2
 433 0054 092C     		cmp	r4, #9
 434 0056 01D0     		beq	.L30
1593:./Drivers/STM32F1xx_HAL_Driver/Src/stm32f1xx_hal_rtc.c ****     {
 435              		.loc 1 1593 0 discriminator 3
 436 0058 0B2C     		cmp	r4, #11
 437 005a 06D1     		bne	.L31
 438              	.L30:
1595:./Drivers/STM32F1xx_HAL_Driver/Src/stm32f1xx_hal_rtc.c ****       {
 439              		.loc 1 1595 0 is_stmt 1
 440 005c 1D2E     		cmp	r6, #29
 441 005e 01D8     		bhi	.L32
1597:./Drivers/STM32F1xx_HAL_Driver/Src/stm32f1xx_hal_rtc.c ****       }
 442              		.loc 1 1597 0
 443 0060 0136     		adds	r6, r6, #1
 444              	.LVL57:
 445 0062 18E0     		b	.L28
ARM GAS  /tmp/ccTzASZE.s 			page 39


 446              	.L32:
1602:./Drivers/STM32F1xx_HAL_Driver/Src/stm32f1xx_hal_rtc.c ****         day = 1U;
 447              		.loc 1 1602 0
 448 0064 0134     		adds	r4, r4, #1
 449              	.LVL58:
1603:./Drivers/STM32F1xx_HAL_Driver/Src/stm32f1xx_hal_rtc.c ****       }
 450              		.loc 1 1603 0
 451 0066 0126     		movs	r6, #1
 452 0068 15E0     		b	.L28
 453              	.LVL59:
 454              	.L31:
1606:./Drivers/STM32F1xx_HAL_Driver/Src/stm32f1xx_hal_rtc.c ****     {
 455              		.loc 1 1606 0
 456 006a 022C     		cmp	r4, #2
 457 006c 13D1     		bne	.L28
1608:./Drivers/STM32F1xx_HAL_Driver/Src/stm32f1xx_hal_rtc.c ****       {
 458              		.loc 1 1608 0
 459 006e 1B2E     		cmp	r6, #27
 460 0070 01D8     		bhi	.L33
1610:./Drivers/STM32F1xx_HAL_Driver/Src/stm32f1xx_hal_rtc.c ****       }
 461              		.loc 1 1610 0
 462 0072 0136     		adds	r6, r6, #1
 463              	.LVL60:
 464 0074 0FE0     		b	.L28
 465              	.L33:
1612:./Drivers/STM32F1xx_HAL_Driver/Src/stm32f1xx_hal_rtc.c ****       {
 466              		.loc 1 1612 0
 467 0076 1C2E     		cmp	r6, #28
 468 0078 09D1     		bne	.L34
1615:./Drivers/STM32F1xx_HAL_Driver/Src/stm32f1xx_hal_rtc.c ****         {
 469              		.loc 1 1615 0
 470 007a 1FFA89F0 		uxth	r0, r9
 471 007e FFF7FEFF 		bl	RTC_IsLeapYear
 472              	.LVL61:
 473 0082 08B1     		cbz	r0, .L35
1617:./Drivers/STM32F1xx_HAL_Driver/Src/stm32f1xx_hal_rtc.c ****         }
 474              		.loc 1 1617 0
 475 0084 0136     		adds	r6, r6, #1
 476              	.LVL62:
 477 0086 06E0     		b	.L28
 478              	.L35:
1621:./Drivers/STM32F1xx_HAL_Driver/Src/stm32f1xx_hal_rtc.c ****           day = 1U;
 479              		.loc 1 1621 0
 480 0088 0134     		adds	r4, r4, #1
 481              	.LVL63:
1622:./Drivers/STM32F1xx_HAL_Driver/Src/stm32f1xx_hal_rtc.c ****         }
 482              		.loc 1 1622 0
 483 008a 0126     		movs	r6, #1
 484 008c 03E0     		b	.L28
 485              	.LVL64:
 486              	.L34:
1625:./Drivers/STM32F1xx_HAL_Driver/Src/stm32f1xx_hal_rtc.c ****       {
 487              		.loc 1 1625 0
 488 008e 1D2E     		cmp	r6, #29
 489 0090 01D1     		bne	.L28
1627:./Drivers/STM32F1xx_HAL_Driver/Src/stm32f1xx_hal_rtc.c ****         day = 1U;
 490              		.loc 1 1627 0
ARM GAS  /tmp/ccTzASZE.s 			page 40


 491 0092 0134     		adds	r4, r4, #1
 492              	.LVL65:
1628:./Drivers/STM32F1xx_HAL_Driver/Src/stm32f1xx_hal_rtc.c ****       }
 493              		.loc 1 1628 0
 494 0094 0126     		movs	r6, #1
 495              	.LVL66:
 496              	.L28:
1567:./Drivers/STM32F1xx_HAL_Driver/Src/stm32f1xx_hal_rtc.c ****   {
 497              		.loc 1 1567 0 discriminator 2
 498 0096 0135     		adds	r5, r5, #1
 499              	.LVL67:
 500              	.L24:
1567:./Drivers/STM32F1xx_HAL_Driver/Src/stm32f1xx_hal_rtc.c ****   {
 501              		.loc 1 1567 0 is_stmt 0 discriminator 1
 502 0098 BD42     		cmp	r5, r7
 503 009a BBD3     		bcc	.L36
1634:./Drivers/STM32F1xx_HAL_Driver/Src/stm32f1xx_hal_rtc.c **** 
 504              		.loc 1 1634 0 is_stmt 1
 505 009c 88F80F90 		strb	r9, [r8, #15]
1637:./Drivers/STM32F1xx_HAL_Driver/Src/stm32f1xx_hal_rtc.c ****   hrtc->DateToUpdate.Date = day;
 506              		.loc 1 1637 0
 507 00a0 E1B2     		uxtb	r1, r4
 508 00a2 88F80D10 		strb	r1, [r8, #13]
1638:./Drivers/STM32F1xx_HAL_Driver/Src/stm32f1xx_hal_rtc.c **** 
 509              		.loc 1 1638 0
 510 00a6 F2B2     		uxtb	r2, r6
 511 00a8 88F80E20 		strb	r2, [r8, #14]
1641:./Drivers/STM32F1xx_HAL_Driver/Src/stm32f1xx_hal_rtc.c **** }
 512              		.loc 1 1641 0
 513 00ac 4846     		mov	r0, r9
 514 00ae FFF7FEFF 		bl	RTC_WeekDayNum
 515              	.LVL68:
 516 00b2 88F80C00 		strb	r0, [r8, #12]
 517 00b6 BDE8F883 		pop	{r3, r4, r5, r6, r7, r8, r9, pc}
 518              		.cfi_endproc
 519              	.LFE89:
 521 00ba 00BF     		.section	.text.RTC_EnterInitMode,"ax",%progbits
 522              		.align	2
 523              		.thumb
 524              		.thumb_func
 526              	RTC_EnterInitMode:
 527              	.LFB85:
1472:./Drivers/STM32F1xx_HAL_Driver/Src/stm32f1xx_hal_rtc.c ****   uint32_t tickstart = 0U;
 528              		.loc 1 1472 0
 529              		.cfi_startproc
 530              		@ args = 0, pretend = 0, frame = 0
 531              		@ frame_needed = 0, uses_anonymous_args = 0
 532              	.LVL69:
 533 0000 38B5     		push	{r3, r4, r5, lr}
 534              	.LCFI5:
 535              		.cfi_def_cfa_offset 16
 536              		.cfi_offset 3, -16
 537              		.cfi_offset 4, -12
 538              		.cfi_offset 5, -8
 539              		.cfi_offset 14, -4
 540 0002 0446     		mov	r4, r0
 541              	.LVL70:
ARM GAS  /tmp/ccTzASZE.s 			page 41


1475:./Drivers/STM32F1xx_HAL_Driver/Src/stm32f1xx_hal_rtc.c ****   /* Wait till RTC is in INIT state and if Time out is reached exit */
 542              		.loc 1 1475 0
 543 0004 FFF7FEFF 		bl	HAL_GetTick
 544              	.LVL71:
 545 0008 0546     		mov	r5, r0
 546              	.LVL72:
1477:./Drivers/STM32F1xx_HAL_Driver/Src/stm32f1xx_hal_rtc.c ****   {
 547              		.loc 1 1477 0
 548 000a 05E0     		b	.L39
 549              	.LVL73:
 550              	.L41:
1479:./Drivers/STM32F1xx_HAL_Driver/Src/stm32f1xx_hal_rtc.c ****     {       
 551              		.loc 1 1479 0
 552 000c FFF7FEFF 		bl	HAL_GetTick
 553              	.LVL74:
 554 0010 401B     		subs	r0, r0, r5
 555 0012 B0F57A7F 		cmp	r0, #1000
 556 0016 0AD8     		bhi	.L42
 557              	.L39:
1477:./Drivers/STM32F1xx_HAL_Driver/Src/stm32f1xx_hal_rtc.c ****   {
 558              		.loc 1 1477 0
 559 0018 2368     		ldr	r3, [r4]
 560 001a 5A68     		ldr	r2, [r3, #4]
 561 001c 12F0200F 		tst	r2, #32
 562 0020 F4D0     		beq	.L41
1486:./Drivers/STM32F1xx_HAL_Driver/Src/stm32f1xx_hal_rtc.c ****   
 563              		.loc 1 1486 0
 564 0022 5A68     		ldr	r2, [r3, #4]
 565 0024 42F01002 		orr	r2, r2, #16
 566 0028 5A60     		str	r2, [r3, #4]
1489:./Drivers/STM32F1xx_HAL_Driver/Src/stm32f1xx_hal_rtc.c **** }
 567              		.loc 1 1489 0
 568 002a 0020     		movs	r0, #0
 569 002c 38BD     		pop	{r3, r4, r5, pc}
 570              	.LVL75:
 571              	.L42:
1481:./Drivers/STM32F1xx_HAL_Driver/Src/stm32f1xx_hal_rtc.c ****     } 
 572              		.loc 1 1481 0
 573 002e 0320     		movs	r0, #3
1490:./Drivers/STM32F1xx_HAL_Driver/Src/stm32f1xx_hal_rtc.c **** 
 574              		.loc 1 1490 0
 575 0030 38BD     		pop	{r3, r4, r5, pc}
 576              		.cfi_endproc
 577              	.LFE85:
 579 0032 00BF     		.section	.text.RTC_ExitInitMode,"ax",%progbits
 580              		.align	2
 581              		.thumb
 582              		.thumb_func
 584              	RTC_ExitInitMode:
 585              	.LFB86:
1499:./Drivers/STM32F1xx_HAL_Driver/Src/stm32f1xx_hal_rtc.c ****   uint32_t tickstart = 0U;
 586              		.loc 1 1499 0
 587              		.cfi_startproc
 588              		@ args = 0, pretend = 0, frame = 0
 589              		@ frame_needed = 0, uses_anonymous_args = 0
 590              	.LVL76:
 591 0000 38B5     		push	{r3, r4, r5, lr}
ARM GAS  /tmp/ccTzASZE.s 			page 42


 592              	.LCFI6:
 593              		.cfi_def_cfa_offset 16
 594              		.cfi_offset 3, -16
 595              		.cfi_offset 4, -12
 596              		.cfi_offset 5, -8
 597              		.cfi_offset 14, -4
 598 0002 0446     		mov	r4, r0
 599              	.LVL77:
1503:./Drivers/STM32F1xx_HAL_Driver/Src/stm32f1xx_hal_rtc.c ****   
 600              		.loc 1 1503 0
 601 0004 0268     		ldr	r2, [r0]
 602 0006 5368     		ldr	r3, [r2, #4]
 603 0008 23F01003 		bic	r3, r3, #16
 604 000c 5360     		str	r3, [r2, #4]
1505:./Drivers/STM32F1xx_HAL_Driver/Src/stm32f1xx_hal_rtc.c ****   /* Wait till RTC is in INIT state and if Time out is reached exit */
 605              		.loc 1 1505 0
 606 000e FFF7FEFF 		bl	HAL_GetTick
 607              	.LVL78:
 608 0012 0546     		mov	r5, r0
 609              	.LVL79:
1507:./Drivers/STM32F1xx_HAL_Driver/Src/stm32f1xx_hal_rtc.c ****   {
 610              		.loc 1 1507 0
 611 0014 05E0     		b	.L45
 612              	.LVL80:
 613              	.L47:
1509:./Drivers/STM32F1xx_HAL_Driver/Src/stm32f1xx_hal_rtc.c ****     {       
 614              		.loc 1 1509 0
 615 0016 FFF7FEFF 		bl	HAL_GetTick
 616              	.LVL81:
 617 001a 401B     		subs	r0, r0, r5
 618 001c B0F57A7F 		cmp	r0, #1000
 619 0020 06D8     		bhi	.L48
 620              	.L45:
1507:./Drivers/STM32F1xx_HAL_Driver/Src/stm32f1xx_hal_rtc.c ****   {
 621              		.loc 1 1507 0
 622 0022 2368     		ldr	r3, [r4]
 623 0024 5B68     		ldr	r3, [r3, #4]
 624 0026 13F0200F 		tst	r3, #32
 625 002a F4D0     		beq	.L47
1515:./Drivers/STM32F1xx_HAL_Driver/Src/stm32f1xx_hal_rtc.c **** }
 626              		.loc 1 1515 0
 627 002c 0020     		movs	r0, #0
 628 002e 38BD     		pop	{r3, r4, r5, pc}
 629              	.LVL82:
 630              	.L48:
1511:./Drivers/STM32F1xx_HAL_Driver/Src/stm32f1xx_hal_rtc.c ****     } 
 631              		.loc 1 1511 0
 632 0030 0320     		movs	r0, #3
1516:./Drivers/STM32F1xx_HAL_Driver/Src/stm32f1xx_hal_rtc.c **** 
 633              		.loc 1 1516 0
 634 0032 38BD     		pop	{r3, r4, r5, pc}
 635              		.cfi_endproc
 636              	.LFE86:
 638              		.section	.text.RTC_WriteTimeCounter,"ax",%progbits
 639              		.align	2
 640              		.thumb
 641              		.thumb_func
ARM GAS  /tmp/ccTzASZE.s 			page 43


 643              	RTC_WriteTimeCounter:
 644              	.LFB82:
1391:./Drivers/STM32F1xx_HAL_Driver/Src/stm32f1xx_hal_rtc.c ****   HAL_StatusTypeDef status = HAL_OK;
 645              		.loc 1 1391 0
 646              		.cfi_startproc
 647              		@ args = 0, pretend = 0, frame = 0
 648              		@ frame_needed = 0, uses_anonymous_args = 0
 649              	.LVL83:
 650 0000 38B5     		push	{r3, r4, r5, lr}
 651              	.LCFI7:
 652              		.cfi_def_cfa_offset 16
 653              		.cfi_offset 3, -16
 654              		.cfi_offset 4, -12
 655              		.cfi_offset 5, -8
 656              		.cfi_offset 14, -4
 657 0002 0546     		mov	r5, r0
 658 0004 0C46     		mov	r4, r1
 659              	.LVL84:
1395:./Drivers/STM32F1xx_HAL_Driver/Src/stm32f1xx_hal_rtc.c ****   {
 660              		.loc 1 1395 0
 661 0006 FFF7FEFF 		bl	RTC_EnterInitMode
 662              	.LVL85:
 663 000a 50B9     		cbnz	r0, .L52
1402:./Drivers/STM32F1xx_HAL_Driver/Src/stm32f1xx_hal_rtc.c ****     /* Set RTC COUNTER LSB word */
 664              		.loc 1 1402 0
 665 000c 2B68     		ldr	r3, [r5]
 666 000e 220C     		lsrs	r2, r4, #16
 667 0010 9A61     		str	r2, [r3, #24]
1404:./Drivers/STM32F1xx_HAL_Driver/Src/stm32f1xx_hal_rtc.c ****     
 668              		.loc 1 1404 0
 669 0012 2B68     		ldr	r3, [r5]
 670 0014 A4B2     		uxth	r4, r4
 671              	.LVL86:
 672 0016 DC61     		str	r4, [r3, #28]
1407:./Drivers/STM32F1xx_HAL_Driver/Src/stm32f1xx_hal_rtc.c ****     {       
 673              		.loc 1 1407 0
 674 0018 2846     		mov	r0, r5
 675 001a FFF7FEFF 		bl	RTC_ExitInitMode
 676              	.LVL87:
 677 001e 10B9     		cbnz	r0, .L53
 678 0020 38BD     		pop	{r3, r4, r5, pc}
 679              	.LVL88:
 680              	.L52:
1397:./Drivers/STM32F1xx_HAL_Driver/Src/stm32f1xx_hal_rtc.c ****   } 
 681              		.loc 1 1397 0
 682 0022 0120     		movs	r0, #1
 683 0024 38BD     		pop	{r3, r4, r5, pc}
 684              	.LVL89:
 685              	.L53:
1409:./Drivers/STM32F1xx_HAL_Driver/Src/stm32f1xx_hal_rtc.c ****     }
 686              		.loc 1 1409 0
 687 0026 0120     		movs	r0, #1
 688              	.LVL90:
1414:./Drivers/STM32F1xx_HAL_Driver/Src/stm32f1xx_hal_rtc.c **** 
 689              		.loc 1 1414 0
 690 0028 38BD     		pop	{r3, r4, r5, pc}
 691              		.cfi_endproc
ARM GAS  /tmp/ccTzASZE.s 			page 44


 692              	.LFE82:
 694 002a 00BF     		.section	.text.RTC_WriteAlarmCounter,"ax",%progbits
 695              		.align	2
 696              		.thumb
 697              		.thumb_func
 699              	RTC_WriteAlarmCounter:
 700              	.LFB84:
1440:./Drivers/STM32F1xx_HAL_Driver/Src/stm32f1xx_hal_rtc.c ****   HAL_StatusTypeDef status = HAL_OK;
 701              		.loc 1 1440 0
 702              		.cfi_startproc
 703              		@ args = 0, pretend = 0, frame = 0
 704              		@ frame_needed = 0, uses_anonymous_args = 0
 705              	.LVL91:
 706 0000 38B5     		push	{r3, r4, r5, lr}
 707              	.LCFI8:
 708              		.cfi_def_cfa_offset 16
 709              		.cfi_offset 3, -16
 710              		.cfi_offset 4, -12
 711              		.cfi_offset 5, -8
 712              		.cfi_offset 14, -4
 713 0002 0546     		mov	r5, r0
 714 0004 0C46     		mov	r4, r1
 715              	.LVL92:
1444:./Drivers/STM32F1xx_HAL_Driver/Src/stm32f1xx_hal_rtc.c ****   {
 716              		.loc 1 1444 0
 717 0006 FFF7FEFF 		bl	RTC_EnterInitMode
 718              	.LVL93:
 719 000a 50B9     		cbnz	r0, .L57
1451:./Drivers/STM32F1xx_HAL_Driver/Src/stm32f1xx_hal_rtc.c ****     /* Set RTC COUNTER LSB word */
 720              		.loc 1 1451 0
 721 000c 2B68     		ldr	r3, [r5]
 722 000e 220C     		lsrs	r2, r4, #16
 723 0010 1A62     		str	r2, [r3, #32]
1453:./Drivers/STM32F1xx_HAL_Driver/Src/stm32f1xx_hal_rtc.c ****     
 724              		.loc 1 1453 0
 725 0012 2B68     		ldr	r3, [r5]
 726 0014 A4B2     		uxth	r4, r4
 727              	.LVL94:
 728 0016 5C62     		str	r4, [r3, #36]
1456:./Drivers/STM32F1xx_HAL_Driver/Src/stm32f1xx_hal_rtc.c ****     {       
 729              		.loc 1 1456 0
 730 0018 2846     		mov	r0, r5
 731 001a FFF7FEFF 		bl	RTC_ExitInitMode
 732              	.LVL95:
 733 001e 10B9     		cbnz	r0, .L58
 734 0020 38BD     		pop	{r3, r4, r5, pc}
 735              	.LVL96:
 736              	.L57:
1446:./Drivers/STM32F1xx_HAL_Driver/Src/stm32f1xx_hal_rtc.c ****   } 
 737              		.loc 1 1446 0
 738 0022 0120     		movs	r0, #1
 739 0024 38BD     		pop	{r3, r4, r5, pc}
 740              	.LVL97:
 741              	.L58:
1458:./Drivers/STM32F1xx_HAL_Driver/Src/stm32f1xx_hal_rtc.c ****     }
 742              		.loc 1 1458 0
 743 0026 0120     		movs	r0, #1
ARM GAS  /tmp/ccTzASZE.s 			page 45


 744              	.LVL98:
1463:./Drivers/STM32F1xx_HAL_Driver/Src/stm32f1xx_hal_rtc.c **** 
 745              		.loc 1 1463 0
 746 0028 38BD     		pop	{r3, r4, r5, pc}
 747              		.cfi_endproc
 748              	.LFE84:
 750 002a 00BF     		.section	.text.HAL_RTC_MspInit,"ax",%progbits
 751              		.align	2
 752              		.weak	HAL_RTC_MspInit
 753              		.thumb
 754              		.thumb_func
 756              	HAL_RTC_MspInit:
 757              	.LFB66:
 428:./Drivers/STM32F1xx_HAL_Driver/Src/stm32f1xx_hal_rtc.c ****   /* Prevent unused argument(s) compilation warning */
 758              		.loc 1 428 0
 759              		.cfi_startproc
 760              		@ args = 0, pretend = 0, frame = 0
 761              		@ frame_needed = 0, uses_anonymous_args = 0
 762              		@ link register save eliminated.
 763              	.LVL99:
 764 0000 7047     		bx	lr
 765              		.cfi_endproc
 766              	.LFE66:
 768 0002 00BF     		.section	.text.HAL_RTC_MspDeInit,"ax",%progbits
 769              		.align	2
 770              		.weak	HAL_RTC_MspDeInit
 771              		.thumb
 772              		.thumb_func
 774              	HAL_RTC_MspDeInit:
 775              	.LFB67:
 443:./Drivers/STM32F1xx_HAL_Driver/Src/stm32f1xx_hal_rtc.c ****   /* Prevent unused argument(s) compilation warning */
 776              		.loc 1 443 0
 777              		.cfi_startproc
 778              		@ args = 0, pretend = 0, frame = 0
 779              		@ frame_needed = 0, uses_anonymous_args = 0
 780              		@ link register save eliminated.
 781              	.LVL100:
 782 0000 7047     		bx	lr
 783              		.cfi_endproc
 784              	.LFE67:
 786 0002 00BF     		.section	.text.HAL_RTC_SetTime,"ax",%progbits
 787              		.align	2
 788              		.global	HAL_RTC_SetTime
 789              		.thumb
 790              		.thumb_func
 792              	HAL_RTC_SetTime:
 793              	.LFB68:
 481:./Drivers/STM32F1xx_HAL_Driver/Src/stm32f1xx_hal_rtc.c ****   uint32_t counter_time = 0U, counter_alarm = 0U;
 794              		.loc 1 481 0
 795              		.cfi_startproc
 796              		@ args = 0, pretend = 0, frame = 0
 797              		@ frame_needed = 0, uses_anonymous_args = 0
 798              	.LVL101:
 481:./Drivers/STM32F1xx_HAL_Driver/Src/stm32f1xx_hal_rtc.c ****   uint32_t counter_time = 0U, counter_alarm = 0U;
 799              		.loc 1 481 0
 800 0000 70B5     		push	{r4, r5, r6, lr}
 801              	.LCFI9:
ARM GAS  /tmp/ccTzASZE.s 			page 46


 802              		.cfi_def_cfa_offset 16
 803              		.cfi_offset 4, -16
 804              		.cfi_offset 5, -12
 805              		.cfi_offset 6, -8
 806              		.cfi_offset 14, -4
 807              	.LVL102:
 485:./Drivers/STM32F1xx_HAL_Driver/Src/stm32f1xx_hal_rtc.c ****   {
 808              		.loc 1 485 0
 809 0002 0028     		cmp	r0, #0
 810 0004 55D0     		beq	.L68
 811 0006 0446     		mov	r4, r0
 485:./Drivers/STM32F1xx_HAL_Driver/Src/stm32f1xx_hal_rtc.c ****   {
 812              		.loc 1 485 0 is_stmt 0 discriminator 1
 813 0008 0029     		cmp	r1, #0
 814 000a 54D0     		beq	.L69
 494:./Drivers/STM32F1xx_HAL_Driver/Src/stm32f1xx_hal_rtc.c ****   
 815              		.loc 1 494 0 is_stmt 1
 816 000c 037C     		ldrb	r3, [r0, #16]	@ zero_extendqisi2
 817 000e 012B     		cmp	r3, #1
 818 0010 53D0     		beq	.L70
 819 0012 0E46     		mov	r6, r1
 494:./Drivers/STM32F1xx_HAL_Driver/Src/stm32f1xx_hal_rtc.c ****   
 820              		.loc 1 494 0 is_stmt 0 discriminator 2
 821 0014 0123     		movs	r3, #1
 822 0016 0374     		strb	r3, [r0, #16]
 496:./Drivers/STM32F1xx_HAL_Driver/Src/stm32f1xx_hal_rtc.c ****   
 823              		.loc 1 496 0 is_stmt 1 discriminator 2
 824 0018 0223     		movs	r3, #2
 825 001a 4374     		strb	r3, [r0, #17]
 498:./Drivers/STM32F1xx_HAL_Driver/Src/stm32f1xx_hal_rtc.c ****   {
 826              		.loc 1 498 0 discriminator 2
 827 001c 5AB9     		cbnz	r2, .L64
 504:./Drivers/STM32F1xx_HAL_Driver/Src/stm32f1xx_hal_rtc.c ****                         ((uint32_t)sTime->Minutes * 60U) + \
 828              		.loc 1 504 0
 829 001e 0A78     		ldrb	r2, [r1]	@ zero_extendqisi2
 830              	.LVL103:
 505:./Drivers/STM32F1xx_HAL_Driver/Src/stm32f1xx_hal_rtc.c ****                         ((uint32_t)sTime->Seconds));  
 831              		.loc 1 505 0
 832 0020 4B78     		ldrb	r3, [r1, #1]	@ zero_extendqisi2
 833 0022 C3EB0313 		rsb	r3, r3, r3, lsl #4
 834 0026 9900     		lsls	r1, r3, #2
 835              	.LVL104:
 504:./Drivers/STM32F1xx_HAL_Driver/Src/stm32f1xx_hal_rtc.c ****                         ((uint32_t)sTime->Minutes * 60U) + \
 836              		.loc 1 504 0
 837 0028 4FF46165 		mov	r5, #3600
 838 002c 05FB0215 		mla	r5, r5, r2, r1
 506:./Drivers/STM32F1xx_HAL_Driver/Src/stm32f1xx_hal_rtc.c ****   }
 839              		.loc 1 506 0
 840 0030 B378     		ldrb	r3, [r6, #2]	@ zero_extendqisi2
 504:./Drivers/STM32F1xx_HAL_Driver/Src/stm32f1xx_hal_rtc.c ****                         ((uint32_t)sTime->Minutes * 60U) + \
 841              		.loc 1 504 0
 842 0032 1D44     		add	r5, r5, r3
 843              	.LVL105:
 844 0034 11E0     		b	.L65
 845              	.LVL106:
 846              	.L64:
 514:./Drivers/STM32F1xx_HAL_Driver/Src/stm32f1xx_hal_rtc.c ****               ((uint32_t)(RTC_Bcd2ToByte(sTime->Minutes)) * 60U) + \
ARM GAS  /tmp/ccTzASZE.s 			page 47


 847              		.loc 1 514 0
 848 0036 0878     		ldrb	r0, [r1]	@ zero_extendqisi2
 849              	.LVL107:
 850 0038 FFF7FEFF 		bl	RTC_Bcd2ToByte
 851              	.LVL108:
 852 003c 4FF46165 		mov	r5, #3600
 853 0040 05FB00F5 		mul	r5, r5, r0
 515:./Drivers/STM32F1xx_HAL_Driver/Src/stm32f1xx_hal_rtc.c ****               ((uint32_t)(RTC_Bcd2ToByte(sTime->Seconds))));   
 854              		.loc 1 515 0
 855 0044 7078     		ldrb	r0, [r6, #1]	@ zero_extendqisi2
 856 0046 FFF7FEFF 		bl	RTC_Bcd2ToByte
 857              	.LVL109:
 858 004a C0EB0010 		rsb	r0, r0, r0, lsl #4
 859 004e 8300     		lsls	r3, r0, #2
 514:./Drivers/STM32F1xx_HAL_Driver/Src/stm32f1xx_hal_rtc.c ****               ((uint32_t)(RTC_Bcd2ToByte(sTime->Minutes)) * 60U) + \
 860              		.loc 1 514 0
 861 0050 1D44     		add	r5, r5, r3
 516:./Drivers/STM32F1xx_HAL_Driver/Src/stm32f1xx_hal_rtc.c ****   }
 862              		.loc 1 516 0
 863 0052 B078     		ldrb	r0, [r6, #2]	@ zero_extendqisi2
 864 0054 FFF7FEFF 		bl	RTC_Bcd2ToByte
 865              	.LVL110:
 514:./Drivers/STM32F1xx_HAL_Driver/Src/stm32f1xx_hal_rtc.c ****               ((uint32_t)(RTC_Bcd2ToByte(sTime->Minutes)) * 60U) + \
 866              		.loc 1 514 0
 867 0058 0544     		add	r5, r5, r0
 868              	.LVL111:
 869              	.L65:
 520:./Drivers/STM32F1xx_HAL_Driver/Src/stm32f1xx_hal_rtc.c ****   {
 870              		.loc 1 520 0
 871 005a 2946     		mov	r1, r5
 872 005c 2046     		mov	r0, r4
 873 005e FFF7FEFF 		bl	RTC_WriteTimeCounter
 874              	.LVL112:
 875 0062 0646     		mov	r6, r0
 876              	.LVL113:
 877 0064 28B1     		cbz	r0, .L66
 523:./Drivers/STM32F1xx_HAL_Driver/Src/stm32f1xx_hal_rtc.c ****     
 878              		.loc 1 523 0
 879 0066 0423     		movs	r3, #4
 880 0068 6374     		strb	r3, [r4, #17]
 526:./Drivers/STM32F1xx_HAL_Driver/Src/stm32f1xx_hal_rtc.c ****     
 881              		.loc 1 526 0
 882 006a 0023     		movs	r3, #0
 883 006c 2374     		strb	r3, [r4, #16]
 528:./Drivers/STM32F1xx_HAL_Driver/Src/stm32f1xx_hal_rtc.c ****   }
 884              		.loc 1 528 0
 885 006e 0126     		movs	r6, #1
 886 0070 24E0     		b	.L63
 887              	.L66:
 533:./Drivers/STM32F1xx_HAL_Driver/Src/stm32f1xx_hal_rtc.c ****     
 888              		.loc 1 533 0
 889 0072 2268     		ldr	r2, [r4]
 890 0074 5368     		ldr	r3, [r2, #4]
 891 0076 23F00503 		bic	r3, r3, #5
 892 007a 5360     		str	r3, [r2, #4]
 536:./Drivers/STM32F1xx_HAL_Driver/Src/stm32f1xx_hal_rtc.c **** 
 893              		.loc 1 536 0
ARM GAS  /tmp/ccTzASZE.s 			page 48


 894 007c 2046     		mov	r0, r4
 895 007e FFF7FEFF 		bl	RTC_ReadAlarmCounter
 896              	.LVL114:
 539:./Drivers/STM32F1xx_HAL_Driver/Src/stm32f1xx_hal_rtc.c ****     {
 897              		.loc 1 539 0
 898 0082 B0F1FF3F 		cmp	r0, #-1
 899 0086 0FD0     		beq	.L67
 541:./Drivers/STM32F1xx_HAL_Driver/Src/stm32f1xx_hal_rtc.c ****       {
 900              		.loc 1 541 0
 901 0088 8542     		cmp	r5, r0
 902 008a 0DD9     		bls	.L67
 903              	.LVL115:
 547:./Drivers/STM32F1xx_HAL_Driver/Src/stm32f1xx_hal_rtc.c ****         {
 904              		.loc 1 547 0
 905 008c 00F5A831 		add	r1, r0, #86016
 906 0090 01F5C071 		add	r1, r1, #384
 907 0094 2046     		mov	r0, r4
 908              	.LVL116:
 909 0096 FFF7FEFF 		bl	RTC_WriteAlarmCounter
 910              	.LVL117:
 911 009a 28B1     		cbz	r0, .L67
 550:./Drivers/STM32F1xx_HAL_Driver/Src/stm32f1xx_hal_rtc.c ****           
 912              		.loc 1 550 0
 913 009c 0423     		movs	r3, #4
 914 009e 6374     		strb	r3, [r4, #17]
 553:./Drivers/STM32F1xx_HAL_Driver/Src/stm32f1xx_hal_rtc.c ****           
 915              		.loc 1 553 0
 916 00a0 0023     		movs	r3, #0
 917 00a2 2374     		strb	r3, [r4, #16]
 555:./Drivers/STM32F1xx_HAL_Driver/Src/stm32f1xx_hal_rtc.c ****         }
 918              		.loc 1 555 0
 919 00a4 0126     		movs	r6, #1
 920 00a6 09E0     		b	.L63
 921              	.L67:
 560:./Drivers/STM32F1xx_HAL_Driver/Src/stm32f1xx_hal_rtc.c ****   
 922              		.loc 1 560 0
 923 00a8 0123     		movs	r3, #1
 924 00aa 6374     		strb	r3, [r4, #17]
 562:./Drivers/STM32F1xx_HAL_Driver/Src/stm32f1xx_hal_rtc.c ****      
 925              		.loc 1 562 0
 926 00ac 0023     		movs	r3, #0
 927 00ae 2374     		strb	r3, [r4, #16]
 564:./Drivers/STM32F1xx_HAL_Driver/Src/stm32f1xx_hal_rtc.c ****   }
 928              		.loc 1 564 0
 929 00b0 04E0     		b	.L63
 930              	.LVL118:
 931              	.L68:
 487:./Drivers/STM32F1xx_HAL_Driver/Src/stm32f1xx_hal_rtc.c ****   }
 932              		.loc 1 487 0
 933 00b2 0126     		movs	r6, #1
 934 00b4 02E0     		b	.L63
 935              	.L69:
 936 00b6 0126     		movs	r6, #1
 937 00b8 00E0     		b	.L63
 938              	.L70:
 494:./Drivers/STM32F1xx_HAL_Driver/Src/stm32f1xx_hal_rtc.c ****   
 939              		.loc 1 494 0
ARM GAS  /tmp/ccTzASZE.s 			page 49


 940 00ba 0226     		movs	r6, #2
 941              	.LVL119:
 942              	.L63:
 566:./Drivers/STM32F1xx_HAL_Driver/Src/stm32f1xx_hal_rtc.c **** 
 943              		.loc 1 566 0
 944 00bc 3046     		mov	r0, r6
 945 00be 70BD     		pop	{r4, r5, r6, pc}
 946              		.cfi_endproc
 947              	.LFE68:
 949              		.section	.text.HAL_RTC_GetTime,"ax",%progbits
 950              		.align	2
 951              		.global	HAL_RTC_GetTime
 952              		.thumb
 953              		.thumb_func
 955              	HAL_RTC_GetTime:
 956              	.LFB69:
 580:./Drivers/STM32F1xx_HAL_Driver/Src/stm32f1xx_hal_rtc.c ****   uint32_t counter_time = 0U, counter_alarm = 0U, days_elapsed = 0U, hours = 0U;
 957              		.loc 1 580 0
 958              		.cfi_startproc
 959              		@ args = 0, pretend = 0, frame = 0
 960              		@ frame_needed = 0, uses_anonymous_args = 0
 961              	.LVL120:
 584:./Drivers/STM32F1xx_HAL_Driver/Src/stm32f1xx_hal_rtc.c ****   {
 962              		.loc 1 584 0
 963 0000 0028     		cmp	r0, #0
 964 0002 6BD0     		beq	.L79
 580:./Drivers/STM32F1xx_HAL_Driver/Src/stm32f1xx_hal_rtc.c ****   uint32_t counter_time = 0U, counter_alarm = 0U, days_elapsed = 0U, hours = 0U;
 965              		.loc 1 580 0 discriminator 1
 966 0004 2DE9F843 		push	{r3, r4, r5, r6, r7, r8, r9, lr}
 967              	.LCFI10:
 968              		.cfi_def_cfa_offset 32
 969              		.cfi_offset 3, -32
 970              		.cfi_offset 4, -28
 971              		.cfi_offset 5, -24
 972              		.cfi_offset 6, -20
 973              		.cfi_offset 7, -16
 974              		.cfi_offset 8, -12
 975              		.cfi_offset 9, -8
 976              		.cfi_offset 14, -4
 977 0008 0546     		mov	r5, r0
 584:./Drivers/STM32F1xx_HAL_Driver/Src/stm32f1xx_hal_rtc.c ****   {
 978              		.loc 1 584 0 discriminator 1
 979 000a 0029     		cmp	r1, #0
 980 000c 68D0     		beq	.L80
 593:./Drivers/STM32F1xx_HAL_Driver/Src/stm32f1xx_hal_rtc.c ****   {
 981              		.loc 1 593 0
 982 000e 0368     		ldr	r3, [r0]
 983 0010 5B68     		ldr	r3, [r3, #4]
 984 0012 13F0040F 		tst	r3, #4
 985 0016 66D1     		bne	.L81
 986 0018 1646     		mov	r6, r2
 987 001a 0C46     		mov	r4, r1
 599:./Drivers/STM32F1xx_HAL_Driver/Src/stm32f1xx_hal_rtc.c **** 
 988              		.loc 1 599 0
 989 001c FFF7FEFF 		bl	RTC_ReadTimeCounter
 990              	.LVL121:
 991 0020 0746     		mov	r7, r0
ARM GAS  /tmp/ccTzASZE.s 			page 50


 992              	.LVL122:
 602:./Drivers/STM32F1xx_HAL_Driver/Src/stm32f1xx_hal_rtc.c ****   sTime->Minutes  = (uint8_t)((counter_time % 3600U) / 60U);
 993              		.loc 1 602 0
 994 0022 384A     		ldr	r2, .L88
 995 0024 A2FB0032 		umull	r3, r2, r2, r0
 996 0028 D20A     		lsrs	r2, r2, #11
 997              	.LVL123:
 603:./Drivers/STM32F1xx_HAL_Driver/Src/stm32f1xx_hal_rtc.c ****   sTime->Seconds  = (uint8_t)((counter_time % 3600U) % 60U);
 998              		.loc 1 603 0
 999 002a 4FF46160 		mov	r0, #3600
 1000              	.LVL124:
 1001 002e 00FB1270 		mls	r0, r0, r2, r7
 1002 0032 354B     		ldr	r3, .L88+4
 1003 0034 A3FB0013 		umull	r1, r3, r3, r0
 1004 0038 5B09     		lsrs	r3, r3, #5
 1005 003a 6370     		strb	r3, [r4, #1]
 604:./Drivers/STM32F1xx_HAL_Driver/Src/stm32f1xx_hal_rtc.c **** 
 1006              		.loc 1 604 0
 1007 003c C3EB0313 		rsb	r3, r3, r3, lsl #4
 1008 0040 9900     		lsls	r1, r3, #2
 1009 0042 411A     		subs	r1, r0, r1
 1010 0044 A170     		strb	r1, [r4, #2]
 606:./Drivers/STM32F1xx_HAL_Driver/Src/stm32f1xx_hal_rtc.c ****   {
 1011              		.loc 1 606 0
 1012 0046 172A     		cmp	r2, #23
 1013 0048 37D9     		bls	.L74
 609:./Drivers/STM32F1xx_HAL_Driver/Src/stm32f1xx_hal_rtc.c **** 
 1014              		.loc 1 609 0
 1015 004a 304B     		ldr	r3, .L88+8
 1016 004c A3FB0738 		umull	r3, r8, r3, r7
 1017 0050 4FEA1848 		lsr	r8, r8, #16
 1018              	.LVL125:
 612:./Drivers/STM32F1xx_HAL_Driver/Src/stm32f1xx_hal_rtc.c **** 
 1019              		.loc 1 612 0
 1020 0054 2E4B     		ldr	r3, .L88+12
 1021 0056 A3FB0213 		umull	r1, r3, r3, r2
 1022 005a 1B09     		lsrs	r3, r3, #4
 1023 005c 03EB4303 		add	r3, r3, r3, lsl #1
 1024 0060 D900     		lsls	r1, r3, #3
 1025 0062 531A     		subs	r3, r2, r1
 1026 0064 2370     		strb	r3, [r4]
 615:./Drivers/STM32F1xx_HAL_Driver/Src/stm32f1xx_hal_rtc.c **** 
 1027              		.loc 1 615 0
 1028 0066 2846     		mov	r0, r5
 1029 0068 FFF7FEFF 		bl	RTC_ReadAlarmCounter
 1030              	.LVL126:
 1031 006c 8146     		mov	r9, r0
 1032              	.LVL127:
 618:./Drivers/STM32F1xx_HAL_Driver/Src/stm32f1xx_hal_rtc.c ****     {
 1033              		.loc 1 618 0
 1034 006e B0F1FF3F 		cmp	r0, #-1
 1035 0072 06D0     		beq	.L75
 618:./Drivers/STM32F1xx_HAL_Driver/Src/stm32f1xx_hal_rtc.c ****     {
 1036              		.loc 1 618 0 is_stmt 0 discriminator 1
 1037 0074 8742     		cmp	r7, r0
 1038 0076 02D2     		bcs	.L82
 620:./Drivers/STM32F1xx_HAL_Driver/Src/stm32f1xx_hal_rtc.c ****     }
ARM GAS  /tmp/ccTzASZE.s 			page 51


 1039              		.loc 1 620 0 is_stmt 1
 1040 0078 C7EB0009 		rsb	r9, r7, r0
 1041              	.LVL128:
 1042 007c 01E0     		b	.L75
 1043              	.LVL129:
 1044              	.L82:
 626:./Drivers/STM32F1xx_HAL_Driver/Src/stm32f1xx_hal_rtc.c ****     }
 1045              		.loc 1 626 0
 1046 007e 4FF0FF39 		mov	r9, #-1
 1047              	.LVL130:
 1048              	.L75:
 630:./Drivers/STM32F1xx_HAL_Driver/Src/stm32f1xx_hal_rtc.c ****     
 1049              		.loc 1 630 0
 1050 0082 244B     		ldr	r3, .L88+16
 1051 0084 03FB1877 		mls	r7, r3, r8, r7
 1052              	.LVL131:
 633:./Drivers/STM32F1xx_HAL_Driver/Src/stm32f1xx_hal_rtc.c ****     {
 1053              		.loc 1 633 0
 1054 0088 3946     		mov	r1, r7
 1055 008a 2846     		mov	r0, r5
 1056 008c FFF7FEFF 		bl	RTC_WriteTimeCounter
 1057              	.LVL132:
 1058 0090 60BB     		cbnz	r0, .L83
 639:./Drivers/STM32F1xx_HAL_Driver/Src/stm32f1xx_hal_rtc.c ****     {
 1059              		.loc 1 639 0
 1060 0092 B9F1FF3F 		cmp	r9, #-1
 1061 0096 06D0     		beq	.L76
 1062              	.LVL133:
 644:./Drivers/STM32F1xx_HAL_Driver/Src/stm32f1xx_hal_rtc.c ****       {
 1063              		.loc 1 644 0
 1064 0098 09EB0701 		add	r1, r9, r7
 1065              	.LVL134:
 1066 009c 2846     		mov	r0, r5
 1067 009e FFF7FEFF 		bl	RTC_WriteAlarmCounter
 1068              	.LVL135:
 1069 00a2 28B1     		cbz	r0, .L77
 1070 00a4 25E0     		b	.L84
 1071              	.LVL136:
 1072              	.L76:
 652:./Drivers/STM32F1xx_HAL_Driver/Src/stm32f1xx_hal_rtc.c ****       {
 1073              		.loc 1 652 0
 1074 00a6 4946     		mov	r1, r9
 1075 00a8 2846     		mov	r0, r5
 1076 00aa FFF7FEFF 		bl	RTC_WriteAlarmCounter
 1077              	.LVL137:
 1078 00ae 18BB     		cbnz	r0, .L85
 1079              	.LVL138:
 1080              	.L77:
 659:./Drivers/STM32F1xx_HAL_Driver/Src/stm32f1xx_hal_rtc.c ****   }
 1081              		.loc 1 659 0
 1082 00b0 4146     		mov	r1, r8
 1083 00b2 2846     		mov	r0, r5
 1084 00b4 FFF7FEFF 		bl	RTC_DateUpdate
 1085              	.LVL139:
 1086 00b8 00E0     		b	.L78
 1087              	.LVL140:
 1088              	.L74:
ARM GAS  /tmp/ccTzASZE.s 			page 52


 663:./Drivers/STM32F1xx_HAL_Driver/Src/stm32f1xx_hal_rtc.c ****   }
 1089              		.loc 1 663 0
 1090 00ba 2270     		strb	r2, [r4]
 1091              	.LVL141:
 1092              	.L78:
 667:./Drivers/STM32F1xx_HAL_Driver/Src/stm32f1xx_hal_rtc.c ****   {
 1093              		.loc 1 667 0
 1094 00bc FEB1     		cbz	r6, .L86
 670:./Drivers/STM32F1xx_HAL_Driver/Src/stm32f1xx_hal_rtc.c ****     sTime->Minutes  = (uint8_t)RTC_ByteToBcd2(sTime->Minutes);
 1095              		.loc 1 670 0
 1096 00be 2078     		ldrb	r0, [r4]	@ zero_extendqisi2
 1097 00c0 FFF7FEFF 		bl	RTC_ByteToBcd2
 1098              	.LVL142:
 1099 00c4 2070     		strb	r0, [r4]
 671:./Drivers/STM32F1xx_HAL_Driver/Src/stm32f1xx_hal_rtc.c ****     sTime->Seconds  = (uint8_t)RTC_ByteToBcd2(sTime->Seconds);  
 1100              		.loc 1 671 0
 1101 00c6 6078     		ldrb	r0, [r4, #1]	@ zero_extendqisi2
 1102 00c8 FFF7FEFF 		bl	RTC_ByteToBcd2
 1103              	.LVL143:
 1104 00cc 6070     		strb	r0, [r4, #1]
 672:./Drivers/STM32F1xx_HAL_Driver/Src/stm32f1xx_hal_rtc.c ****   }
 1105              		.loc 1 672 0
 1106 00ce A078     		ldrb	r0, [r4, #2]	@ zero_extendqisi2
 1107 00d0 FFF7FEFF 		bl	RTC_ByteToBcd2
 1108              	.LVL144:
 1109 00d4 A070     		strb	r0, [r4, #2]
 675:./Drivers/STM32F1xx_HAL_Driver/Src/stm32f1xx_hal_rtc.c **** }
 1110              		.loc 1 675 0
 1111 00d6 0020     		movs	r0, #0
 1112 00d8 BDE8F883 		pop	{r3, r4, r5, r6, r7, r8, r9, pc}
 1113              	.LVL145:
 1114              	.L79:
 1115              	.LCFI11:
 1116              		.cfi_def_cfa_offset 0
 1117              		.cfi_restore 3
 1118              		.cfi_restore 4
 1119              		.cfi_restore 5
 1120              		.cfi_restore 6
 1121              		.cfi_restore 7
 1122              		.cfi_restore 8
 1123              		.cfi_restore 9
 1124              		.cfi_restore 14
 586:./Drivers/STM32F1xx_HAL_Driver/Src/stm32f1xx_hal_rtc.c ****   }
 1125              		.loc 1 586 0
 1126 00dc 0120     		movs	r0, #1
 1127              	.LVL146:
 676:./Drivers/STM32F1xx_HAL_Driver/Src/stm32f1xx_hal_rtc.c **** 
 1128              		.loc 1 676 0
 1129 00de 7047     		bx	lr
 1130              	.LVL147:
 1131              	.L80:
 1132              	.LCFI12:
 1133              		.cfi_def_cfa_offset 32
 1134              		.cfi_offset 3, -32
 1135              		.cfi_offset 4, -28
 1136              		.cfi_offset 5, -24
 1137              		.cfi_offset 6, -20
ARM GAS  /tmp/ccTzASZE.s 			page 53


 1138              		.cfi_offset 7, -16
 1139              		.cfi_offset 8, -12
 1140              		.cfi_offset 9, -8
 1141              		.cfi_offset 14, -4
 586:./Drivers/STM32F1xx_HAL_Driver/Src/stm32f1xx_hal_rtc.c ****   }
 1142              		.loc 1 586 0
 1143 00e0 0120     		movs	r0, #1
 1144              	.LVL148:
 1145 00e2 BDE8F883 		pop	{r3, r4, r5, r6, r7, r8, r9, pc}
 1146              	.LVL149:
 1147              	.L81:
 595:./Drivers/STM32F1xx_HAL_Driver/Src/stm32f1xx_hal_rtc.c ****   }
 1148              		.loc 1 595 0
 1149 00e6 0120     		movs	r0, #1
 1150              	.LVL150:
 1151 00e8 BDE8F883 		pop	{r3, r4, r5, r6, r7, r8, r9, pc}
 1152              	.LVL151:
 1153              	.L83:
 635:./Drivers/STM32F1xx_HAL_Driver/Src/stm32f1xx_hal_rtc.c ****     }
 1154              		.loc 1 635 0
 1155 00ec 0120     		movs	r0, #1
 1156 00ee BDE8F883 		pop	{r3, r4, r5, r6, r7, r8, r9, pc}
 1157              	.LVL152:
 1158              	.L84:
 646:./Drivers/STM32F1xx_HAL_Driver/Src/stm32f1xx_hal_rtc.c ****       }
 1159              		.loc 1 646 0
 1160 00f2 0120     		movs	r0, #1
 1161 00f4 BDE8F883 		pop	{r3, r4, r5, r6, r7, r8, r9, pc}
 1162              	.LVL153:
 1163              	.L85:
 654:./Drivers/STM32F1xx_HAL_Driver/Src/stm32f1xx_hal_rtc.c ****       }
 1164              		.loc 1 654 0
 1165 00f8 0120     		movs	r0, #1
 1166 00fa BDE8F883 		pop	{r3, r4, r5, r6, r7, r8, r9, pc}
 1167              	.LVL154:
 1168              	.L86:
 675:./Drivers/STM32F1xx_HAL_Driver/Src/stm32f1xx_hal_rtc.c **** }
 1169              		.loc 1 675 0
 1170 00fe 0020     		movs	r0, #0
 676:./Drivers/STM32F1xx_HAL_Driver/Src/stm32f1xx_hal_rtc.c **** 
 1171              		.loc 1 676 0
 1172 0100 BDE8F883 		pop	{r3, r4, r5, r6, r7, r8, r9, pc}
 1173              	.LVL155:
 1174              	.L89:
 1175              		.align	2
 1176              	.L88:
 1177 0104 C5B3A291 		.word	-1851608123
 1178 0108 89888888 		.word	-2004318071
 1179 010c 07452EC2 		.word	-1037155065
 1180 0110 ABAAAAAA 		.word	-1431655765
 1181 0114 80510100 		.word	86400
 1182              		.cfi_endproc
 1183              	.LFE69:
 1185              		.section	.text.HAL_RTC_SetDate,"ax",%progbits
 1186              		.align	2
 1187              		.global	HAL_RTC_SetDate
 1188              		.thumb
ARM GAS  /tmp/ccTzASZE.s 			page 54


 1189              		.thumb_func
 1191              	HAL_RTC_SetDate:
 1192              	.LFB70:
 691:./Drivers/STM32F1xx_HAL_Driver/Src/stm32f1xx_hal_rtc.c ****   uint32_t counter_time = 0U, counter_alarm = 0U, hours = 0U;
 1193              		.loc 1 691 0
 1194              		.cfi_startproc
 1195              		@ args = 0, pretend = 0, frame = 0
 1196              		@ frame_needed = 0, uses_anonymous_args = 0
 1197              	.LVL156:
 695:./Drivers/STM32F1xx_HAL_Driver/Src/stm32f1xx_hal_rtc.c ****   {
 1198              		.loc 1 695 0
 1199 0000 0028     		cmp	r0, #0
 1200 0002 5CD0     		beq	.L96
 691:./Drivers/STM32F1xx_HAL_Driver/Src/stm32f1xx_hal_rtc.c ****   uint32_t counter_time = 0U, counter_alarm = 0U, hours = 0U;
 1201              		.loc 1 691 0 discriminator 1
 1202 0004 38B5     		push	{r3, r4, r5, lr}
 1203              	.LCFI13:
 1204              		.cfi_def_cfa_offset 16
 1205              		.cfi_offset 3, -16
 1206              		.cfi_offset 4, -12
 1207              		.cfi_offset 5, -8
 1208              		.cfi_offset 14, -4
 1209 0006 0446     		mov	r4, r0
 695:./Drivers/STM32F1xx_HAL_Driver/Src/stm32f1xx_hal_rtc.c ****   {
 1210              		.loc 1 695 0 discriminator 1
 1211 0008 0029     		cmp	r1, #0
 1212 000a 5AD0     		beq	.L97
 704:./Drivers/STM32F1xx_HAL_Driver/Src/stm32f1xx_hal_rtc.c ****   
 1213              		.loc 1 704 0
 1214 000c 037C     		ldrb	r3, [r0, #16]	@ zero_extendqisi2
 1215 000e 012B     		cmp	r3, #1
 1216 0010 59D0     		beq	.L98
 1217 0012 0D46     		mov	r5, r1
 704:./Drivers/STM32F1xx_HAL_Driver/Src/stm32f1xx_hal_rtc.c ****   
 1218              		.loc 1 704 0 is_stmt 0 discriminator 2
 1219 0014 0123     		movs	r3, #1
 1220 0016 0374     		strb	r3, [r0, #16]
 706:./Drivers/STM32F1xx_HAL_Driver/Src/stm32f1xx_hal_rtc.c ****   
 1221              		.loc 1 706 0 is_stmt 1 discriminator 2
 1222 0018 0223     		movs	r3, #2
 1223 001a 4374     		strb	r3, [r0, #17]
 708:./Drivers/STM32F1xx_HAL_Driver/Src/stm32f1xx_hal_rtc.c ****   {   
 1224              		.loc 1 708 0 discriminator 2
 1225 001c 32B9     		cbnz	r2, .L92
 715:./Drivers/STM32F1xx_HAL_Driver/Src/stm32f1xx_hal_rtc.c ****     hrtc->DateToUpdate.Month = sDate->Month;
 1226              		.loc 1 715 0
 1227 001e CB78     		ldrb	r3, [r1, #3]	@ zero_extendqisi2
 1228 0020 C373     		strb	r3, [r0, #15]
 716:./Drivers/STM32F1xx_HAL_Driver/Src/stm32f1xx_hal_rtc.c ****     hrtc->DateToUpdate.Date  = sDate->Date;
 1229              		.loc 1 716 0
 1230 0022 4B78     		ldrb	r3, [r1, #1]	@ zero_extendqisi2
 1231 0024 4373     		strb	r3, [r0, #13]
 717:./Drivers/STM32F1xx_HAL_Driver/Src/stm32f1xx_hal_rtc.c ****   }
 1232              		.loc 1 717 0
 1233 0026 8B78     		ldrb	r3, [r1, #2]	@ zero_extendqisi2
 1234 0028 8373     		strb	r3, [r0, #14]
 1235 002a 0BE0     		b	.L93
ARM GAS  /tmp/ccTzASZE.s 			page 55


 1236              	.L92:
 726:./Drivers/STM32F1xx_HAL_Driver/Src/stm32f1xx_hal_rtc.c ****     hrtc->DateToUpdate.Month = RTC_Bcd2ToByte(sDate->Month);
 1237              		.loc 1 726 0
 1238 002c C878     		ldrb	r0, [r1, #3]	@ zero_extendqisi2
 1239              	.LVL157:
 1240 002e FFF7FEFF 		bl	RTC_Bcd2ToByte
 1241              	.LVL158:
 1242 0032 E073     		strb	r0, [r4, #15]
 727:./Drivers/STM32F1xx_HAL_Driver/Src/stm32f1xx_hal_rtc.c ****     hrtc->DateToUpdate.Date  = RTC_Bcd2ToByte(sDate->Date);
 1243              		.loc 1 727 0
 1244 0034 6878     		ldrb	r0, [r5, #1]	@ zero_extendqisi2
 1245 0036 FFF7FEFF 		bl	RTC_Bcd2ToByte
 1246              	.LVL159:
 1247 003a 6073     		strb	r0, [r4, #13]
 728:./Drivers/STM32F1xx_HAL_Driver/Src/stm32f1xx_hal_rtc.c ****   }
 1248              		.loc 1 728 0
 1249 003c A878     		ldrb	r0, [r5, #2]	@ zero_extendqisi2
 1250 003e FFF7FEFF 		bl	RTC_Bcd2ToByte
 1251              	.LVL160:
 1252 0042 A073     		strb	r0, [r4, #14]
 1253              	.L93:
 732:./Drivers/STM32F1xx_HAL_Driver/Src/stm32f1xx_hal_rtc.c ****   sDate->WeekDay = hrtc->DateToUpdate.WeekDay;
 1254              		.loc 1 732 0
 1255 0044 A27B     		ldrb	r2, [r4, #14]	@ zero_extendqisi2
 1256 0046 617B     		ldrb	r1, [r4, #13]	@ zero_extendqisi2
 1257 0048 E07B     		ldrb	r0, [r4, #15]	@ zero_extendqisi2
 1258 004a FFF7FEFF 		bl	RTC_WeekDayNum
 1259              	.LVL161:
 1260 004e 2073     		strb	r0, [r4, #12]
 733:./Drivers/STM32F1xx_HAL_Driver/Src/stm32f1xx_hal_rtc.c **** 
 1261              		.loc 1 733 0
 1262 0050 2870     		strb	r0, [r5]
 737:./Drivers/STM32F1xx_HAL_Driver/Src/stm32f1xx_hal_rtc.c **** 
 1263              		.loc 1 737 0
 1264 0052 2046     		mov	r0, r4
 1265 0054 FFF7FEFF 		bl	RTC_ReadTimeCounter
 1266              	.LVL162:
 740:./Drivers/STM32F1xx_HAL_Driver/Src/stm32f1xx_hal_rtc.c ****   if (hours > 24U)
 1267              		.loc 1 740 0
 1268 0058 1C4B     		ldr	r3, .L100
 1269 005a A3FB0023 		umull	r2, r3, r3, r0
 1270              	.LVL163:
 741:./Drivers/STM32F1xx_HAL_Driver/Src/stm32f1xx_hal_rtc.c ****   {
 1271              		.loc 1 741 0
 1272 005e B3F5484F 		cmp	r3, #51200
 1273 0062 27D3     		bcc	.L94
 744:./Drivers/STM32F1xx_HAL_Driver/Src/stm32f1xx_hal_rtc.c ****     /* Write time counter in RTC registers */
 1274              		.loc 1 744 0
 1275 0064 1A4D     		ldr	r5, .L100+4
 1276              	.LVL164:
 1277 0066 A5FB0035 		umull	r3, r5, r5, r0
 1278              	.LVL165:
 1279 006a 2B0C     		lsrs	r3, r5, #16
 1280 006c 194D     		ldr	r5, .L100+8
 1281 006e 05FB1305 		mls	r5, r5, r3, r0
 1282              	.LVL166:
 746:./Drivers/STM32F1xx_HAL_Driver/Src/stm32f1xx_hal_rtc.c ****     {
ARM GAS  /tmp/ccTzASZE.s 			page 56


 1283              		.loc 1 746 0
 1284 0072 2946     		mov	r1, r5
 1285 0074 2046     		mov	r0, r4
 1286              	.LVL167:
 1287 0076 FFF7FEFF 		bl	RTC_WriteTimeCounter
 1288              	.LVL168:
 1289 007a 28B1     		cbz	r0, .L95
 749:./Drivers/STM32F1xx_HAL_Driver/Src/stm32f1xx_hal_rtc.c ****       
 1290              		.loc 1 749 0
 1291 007c 0423     		movs	r3, #4
 1292 007e 6374     		strb	r3, [r4, #17]
 752:./Drivers/STM32F1xx_HAL_Driver/Src/stm32f1xx_hal_rtc.c ****       
 1293              		.loc 1 752 0
 1294 0080 0023     		movs	r3, #0
 1295 0082 2374     		strb	r3, [r4, #16]
 754:./Drivers/STM32F1xx_HAL_Driver/Src/stm32f1xx_hal_rtc.c ****     }
 1296              		.loc 1 754 0
 1297 0084 0120     		movs	r0, #1
 1298 0086 38BD     		pop	{r3, r4, r5, pc}
 1299              	.LVL169:
 1300              	.L95:
 758:./Drivers/STM32F1xx_HAL_Driver/Src/stm32f1xx_hal_rtc.c **** 
 1301              		.loc 1 758 0
 1302 0088 2046     		mov	r0, r4
 1303 008a FFF7FEFF 		bl	RTC_ReadAlarmCounter
 1304              	.LVL170:
 761:./Drivers/STM32F1xx_HAL_Driver/Src/stm32f1xx_hal_rtc.c ****     {
 1305              		.loc 1 761 0
 1306 008e B0F1FF3F 		cmp	r0, #-1
 1307 0092 0FD0     		beq	.L94
 763:./Drivers/STM32F1xx_HAL_Driver/Src/stm32f1xx_hal_rtc.c ****       {
 1308              		.loc 1 763 0
 1309 0094 8542     		cmp	r5, r0
 1310 0096 0DD9     		bls	.L94
 1311              	.LVL171:
 769:./Drivers/STM32F1xx_HAL_Driver/Src/stm32f1xx_hal_rtc.c ****         {
 1312              		.loc 1 769 0
 1313 0098 00F5A831 		add	r1, r0, #86016
 1314 009c 01F5C071 		add	r1, r1, #384
 1315 00a0 2046     		mov	r0, r4
 1316              	.LVL172:
 1317 00a2 FFF7FEFF 		bl	RTC_WriteAlarmCounter
 1318              	.LVL173:
 1319 00a6 28B1     		cbz	r0, .L94
 772:./Drivers/STM32F1xx_HAL_Driver/Src/stm32f1xx_hal_rtc.c ****           
 1320              		.loc 1 772 0
 1321 00a8 0423     		movs	r3, #4
 1322 00aa 6374     		strb	r3, [r4, #17]
 775:./Drivers/STM32F1xx_HAL_Driver/Src/stm32f1xx_hal_rtc.c ****           
 1323              		.loc 1 775 0
 1324 00ac 0023     		movs	r3, #0
 1325 00ae 2374     		strb	r3, [r4, #16]
 777:./Drivers/STM32F1xx_HAL_Driver/Src/stm32f1xx_hal_rtc.c ****         }
 1326              		.loc 1 777 0
 1327 00b0 0120     		movs	r0, #1
 1328 00b2 38BD     		pop	{r3, r4, r5, pc}
 1329              	.LVL174:
ARM GAS  /tmp/ccTzASZE.s 			page 57


 1330              	.L94:
 785:./Drivers/STM32F1xx_HAL_Driver/Src/stm32f1xx_hal_rtc.c ****   
 1331              		.loc 1 785 0
 1332 00b4 0123     		movs	r3, #1
 1333 00b6 6374     		strb	r3, [r4, #17]
 788:./Drivers/STM32F1xx_HAL_Driver/Src/stm32f1xx_hal_rtc.c ****   
 1334              		.loc 1 788 0
 1335 00b8 0020     		movs	r0, #0
 1336 00ba 2074     		strb	r0, [r4, #16]
 790:./Drivers/STM32F1xx_HAL_Driver/Src/stm32f1xx_hal_rtc.c **** }
 1337              		.loc 1 790 0
 1338 00bc 38BD     		pop	{r3, r4, r5, pc}
 1339              	.LVL175:
 1340              	.L96:
 1341              	.LCFI14:
 1342              		.cfi_def_cfa_offset 0
 1343              		.cfi_restore 3
 1344              		.cfi_restore 4
 1345              		.cfi_restore 5
 1346              		.cfi_restore 14
 697:./Drivers/STM32F1xx_HAL_Driver/Src/stm32f1xx_hal_rtc.c ****   }
 1347              		.loc 1 697 0
 1348 00be 0120     		movs	r0, #1
 1349              	.LVL176:
 791:./Drivers/STM32F1xx_HAL_Driver/Src/stm32f1xx_hal_rtc.c **** 
 1350              		.loc 1 791 0
 1351 00c0 7047     		bx	lr
 1352              	.LVL177:
 1353              	.L97:
 1354              	.LCFI15:
 1355              		.cfi_def_cfa_offset 16
 1356              		.cfi_offset 3, -16
 1357              		.cfi_offset 4, -12
 1358              		.cfi_offset 5, -8
 1359              		.cfi_offset 14, -4
 697:./Drivers/STM32F1xx_HAL_Driver/Src/stm32f1xx_hal_rtc.c ****   }
 1360              		.loc 1 697 0
 1361 00c2 0120     		movs	r0, #1
 1362              	.LVL178:
 1363 00c4 38BD     		pop	{r3, r4, r5, pc}
 1364              	.LVL179:
 1365              	.L98:
 704:./Drivers/STM32F1xx_HAL_Driver/Src/stm32f1xx_hal_rtc.c ****   
 1366              		.loc 1 704 0
 1367 00c6 0220     		movs	r0, #2
 1368              	.LVL180:
 791:./Drivers/STM32F1xx_HAL_Driver/Src/stm32f1xx_hal_rtc.c **** 
 1369              		.loc 1 791 0
 1370 00c8 38BD     		pop	{r3, r4, r5, pc}
 1371              	.LVL181:
 1372              	.L101:
 1373 00ca 00BF     		.align	2
 1374              	.L100:
 1375 00cc C5B3A291 		.word	-1851608123
 1376 00d0 07452EC2 		.word	-1037155065
 1377 00d4 80510100 		.word	86400
 1378              		.cfi_endproc
ARM GAS  /tmp/ccTzASZE.s 			page 58


 1379              	.LFE70:
 1381              		.section	.text.HAL_RTC_GetDate,"ax",%progbits
 1382              		.align	2
 1383              		.global	HAL_RTC_GetDate
 1384              		.thumb
 1385              		.thumb_func
 1387              	HAL_RTC_GetDate:
 1388              	.LFB71:
 805:./Drivers/STM32F1xx_HAL_Driver/Src/stm32f1xx_hal_rtc.c ****   RTC_TimeTypeDef stime = {0U};
 1389              		.loc 1 805 0
 1390              		.cfi_startproc
 1391              		@ args = 0, pretend = 0, frame = 8
 1392              		@ frame_needed = 0, uses_anonymous_args = 0
 1393              	.LVL182:
 1394 0000 2DE9F041 		push	{r4, r5, r6, r7, r8, lr}
 1395              	.LCFI16:
 1396              		.cfi_def_cfa_offset 24
 1397              		.cfi_offset 4, -24
 1398              		.cfi_offset 5, -20
 1399              		.cfi_offset 6, -16
 1400              		.cfi_offset 7, -12
 1401              		.cfi_offset 8, -8
 1402              		.cfi_offset 14, -4
 1403 0004 82B0     		sub	sp, sp, #8
 1404              	.LCFI17:
 1405              		.cfi_def_cfa_offset 32
 806:./Drivers/STM32F1xx_HAL_Driver/Src/stm32f1xx_hal_rtc.c ****   
 1406              		.loc 1 806 0
 1407 0006 0023     		movs	r3, #0
 1408 0008 ADF80430 		strh	r3, [sp, #4]	@ movhi
 1409 000c 8DF80630 		strb	r3, [sp, #6]
 809:./Drivers/STM32F1xx_HAL_Driver/Src/stm32f1xx_hal_rtc.c ****   {
 1410              		.loc 1 809 0
 1411 0010 00B3     		cbz	r0, .L104
 1412 0012 0546     		mov	r5, r0
 809:./Drivers/STM32F1xx_HAL_Driver/Src/stm32f1xx_hal_rtc.c ****   {
 1413              		.loc 1 809 0 is_stmt 0 discriminator 1
 1414 0014 01B3     		cbz	r1, .L105
 1415 0016 1746     		mov	r7, r2
 1416 0018 0C46     		mov	r4, r1
 818:./Drivers/STM32F1xx_HAL_Driver/Src/stm32f1xx_hal_rtc.c ****   {
 1417              		.loc 1 818 0 is_stmt 1
 1418 001a 1A46     		mov	r2, r3
 1419              	.LVL183:
 1420 001c 01A9     		add	r1, sp, #4
 1421              	.LVL184:
 1422 001e FFF7FEFF 		bl	HAL_RTC_GetTime
 1423              	.LVL185:
 1424 0022 0646     		mov	r6, r0
 1425 0024 D0B9     		cbnz	r0, .L106
 824:./Drivers/STM32F1xx_HAL_Driver/Src/stm32f1xx_hal_rtc.c ****   sDate->Year     = hrtc->DateToUpdate.Year;
 1426              		.loc 1 824 0
 1427 0026 2B7B     		ldrb	r3, [r5, #12]	@ zero_extendqisi2
 1428 0028 2370     		strb	r3, [r4]
 825:./Drivers/STM32F1xx_HAL_Driver/Src/stm32f1xx_hal_rtc.c ****   sDate->Month    = hrtc->DateToUpdate.Month;
 1429              		.loc 1 825 0
 1430 002a E87B     		ldrb	r0, [r5, #15]	@ zero_extendqisi2
ARM GAS  /tmp/ccTzASZE.s 			page 59


 1431 002c E070     		strb	r0, [r4, #3]
 826:./Drivers/STM32F1xx_HAL_Driver/Src/stm32f1xx_hal_rtc.c ****   sDate->Date     = hrtc->DateToUpdate.Date;
 1432              		.loc 1 826 0
 1433 002e 95F80D80 		ldrb	r8, [r5, #13]	@ zero_extendqisi2
 1434 0032 84F80180 		strb	r8, [r4, #1]
 827:./Drivers/STM32F1xx_HAL_Driver/Src/stm32f1xx_hal_rtc.c **** 
 1435              		.loc 1 827 0
 1436 0036 AD7B     		ldrb	r5, [r5, #14]	@ zero_extendqisi2
 1437              	.LVL186:
 1438 0038 A570     		strb	r5, [r4, #2]
 830:./Drivers/STM32F1xx_HAL_Driver/Src/stm32f1xx_hal_rtc.c ****   {    
 1439              		.loc 1 830 0
 1440 003a 87B1     		cbz	r7, .L103
 833:./Drivers/STM32F1xx_HAL_Driver/Src/stm32f1xx_hal_rtc.c ****     sDate->Month  = (uint8_t)RTC_ByteToBcd2(sDate->Month);
 1441              		.loc 1 833 0
 1442 003c FFF7FEFF 		bl	RTC_ByteToBcd2
 1443              	.LVL187:
 1444 0040 E070     		strb	r0, [r4, #3]
 834:./Drivers/STM32F1xx_HAL_Driver/Src/stm32f1xx_hal_rtc.c ****     sDate->Date   = (uint8_t)RTC_ByteToBcd2(sDate->Date);  
 1445              		.loc 1 834 0
 1446 0042 4046     		mov	r0, r8
 1447 0044 FFF7FEFF 		bl	RTC_ByteToBcd2
 1448              	.LVL188:
 1449 0048 6070     		strb	r0, [r4, #1]
 835:./Drivers/STM32F1xx_HAL_Driver/Src/stm32f1xx_hal_rtc.c ****   }
 1450              		.loc 1 835 0
 1451 004a 2846     		mov	r0, r5
 1452 004c FFF7FEFF 		bl	RTC_ByteToBcd2
 1453              	.LVL189:
 1454 0050 A070     		strb	r0, [r4, #2]
 1455 0052 04E0     		b	.L103
 1456              	.LVL190:
 1457              	.L104:
 811:./Drivers/STM32F1xx_HAL_Driver/Src/stm32f1xx_hal_rtc.c ****   }
 1458              		.loc 1 811 0
 1459 0054 0126     		movs	r6, #1
 1460 0056 02E0     		b	.L103
 1461              	.L105:
 1462 0058 0126     		movs	r6, #1
 1463 005a 00E0     		b	.L103
 1464              	.LVL191:
 1465              	.L106:
 820:./Drivers/STM32F1xx_HAL_Driver/Src/stm32f1xx_hal_rtc.c ****   }
 1466              		.loc 1 820 0
 1467 005c 0126     		movs	r6, #1
 1468              	.LVL192:
 1469              	.L103:
 838:./Drivers/STM32F1xx_HAL_Driver/Src/stm32f1xx_hal_rtc.c **** 
 1470              		.loc 1 838 0
 1471 005e 3046     		mov	r0, r6
 1472 0060 02B0     		add	sp, sp, #8
 1473              	.LCFI18:
 1474              		.cfi_def_cfa_offset 24
 1475              		@ sp needed
 1476 0062 BDE8F081 		pop	{r4, r5, r6, r7, r8, pc}
 1477              		.cfi_endproc
 1478              	.LFE71:
ARM GAS  /tmp/ccTzASZE.s 			page 60


 1480 0066 00BF     		.section	.text.HAL_RTC_SetAlarm,"ax",%progbits
 1481              		.align	2
 1482              		.global	HAL_RTC_SetAlarm
 1483              		.thumb
 1484              		.thumb_func
 1486              	HAL_RTC_SetAlarm:
 1487              	.LFB72:
 870:./Drivers/STM32F1xx_HAL_Driver/Src/stm32f1xx_hal_rtc.c ****   uint32_t counter_alarm = 0U, counter_time;
 1488              		.loc 1 870 0
 1489              		.cfi_startproc
 1490              		@ args = 0, pretend = 0, frame = 8
 1491              		@ frame_needed = 0, uses_anonymous_args = 0
 1492              	.LVL193:
 1493 0000 F0B5     		push	{r4, r5, r6, r7, lr}
 1494              	.LCFI19:
 1495              		.cfi_def_cfa_offset 20
 1496              		.cfi_offset 4, -20
 1497              		.cfi_offset 5, -16
 1498              		.cfi_offset 6, -12
 1499              		.cfi_offset 7, -8
 1500              		.cfi_offset 14, -4
 1501 0002 83B0     		sub	sp, sp, #12
 1502              	.LCFI20:
 1503              		.cfi_def_cfa_offset 32
 1504              	.LVL194:
 872:./Drivers/STM32F1xx_HAL_Driver/Src/stm32f1xx_hal_rtc.c ****   
 1505              		.loc 1 872 0
 1506 0004 0023     		movs	r3, #0
 1507 0006 ADF80430 		strh	r3, [sp, #4]	@ movhi
 1508 000a 8DF80630 		strb	r3, [sp, #6]
 875:./Drivers/STM32F1xx_HAL_Driver/Src/stm32f1xx_hal_rtc.c ****   {
 1509              		.loc 1 875 0
 1510 000e 0028     		cmp	r0, #0
 1511 0010 56D0     		beq	.L114
 1512 0012 0346     		mov	r3, r0
 875:./Drivers/STM32F1xx_HAL_Driver/Src/stm32f1xx_hal_rtc.c ****   {
 1513              		.loc 1 875 0 is_stmt 0 discriminator 1
 1514 0014 0029     		cmp	r1, #0
 1515 0016 55D0     		beq	.L115
 885:./Drivers/STM32F1xx_HAL_Driver/Src/stm32f1xx_hal_rtc.c ****   
 1516              		.loc 1 885 0 is_stmt 1
 1517 0018 007C     		ldrb	r0, [r0, #16]	@ zero_extendqisi2
 1518              	.LVL195:
 1519 001a 0128     		cmp	r0, #1
 1520 001c 54D0     		beq	.L116
 1521 001e 1D46     		mov	r5, r3
 1522 0020 1646     		mov	r6, r2
 1523 0022 0C46     		mov	r4, r1
 885:./Drivers/STM32F1xx_HAL_Driver/Src/stm32f1xx_hal_rtc.c ****   
 1524              		.loc 1 885 0 is_stmt 0 discriminator 2
 1525 0024 0123     		movs	r3, #1
 1526              	.LVL196:
 1527 0026 2B74     		strb	r3, [r5, #16]
 887:./Drivers/STM32F1xx_HAL_Driver/Src/stm32f1xx_hal_rtc.c ****   
 1528              		.loc 1 887 0 is_stmt 1 discriminator 2
 1529 0028 0223     		movs	r3, #2
 1530 002a 6B74     		strb	r3, [r5, #17]
ARM GAS  /tmp/ccTzASZE.s 			page 61


 890:./Drivers/STM32F1xx_HAL_Driver/Src/stm32f1xx_hal_rtc.c ****   {
 1531              		.loc 1 890 0 discriminator 2
 1532 002c 0022     		movs	r2, #0
 1533              	.LVL197:
 1534 002e 01A9     		add	r1, sp, #4
 1535              	.LVL198:
 1536 0030 2846     		mov	r0, r5
 1537 0032 FFF7FEFF 		bl	HAL_RTC_GetTime
 1538              	.LVL199:
 1539 0036 0028     		cmp	r0, #0
 1540 0038 48D1     		bne	.L117
 896:./Drivers/STM32F1xx_HAL_Driver/Src/stm32f1xx_hal_rtc.c ****                       ((uint32_t)stime.Minutes * 60U) + \
 1541              		.loc 1 896 0
 1542 003a 9DF80420 		ldrb	r2, [sp, #4]	@ zero_extendqisi2
 897:./Drivers/STM32F1xx_HAL_Driver/Src/stm32f1xx_hal_rtc.c ****                       ((uint32_t)stime.Seconds));  
 1543              		.loc 1 897 0
 1544 003e 9DF80530 		ldrb	r3, [sp, #5]	@ zero_extendqisi2
 1545 0042 C3EB0313 		rsb	r3, r3, r3, lsl #4
 1546 0046 9900     		lsls	r1, r3, #2
 896:./Drivers/STM32F1xx_HAL_Driver/Src/stm32f1xx_hal_rtc.c ****                       ((uint32_t)stime.Minutes * 60U) + \
 1547              		.loc 1 896 0
 1548 0048 4FF46167 		mov	r7, #3600
 1549 004c 07FB0213 		mla	r3, r7, r2, r1
 898:./Drivers/STM32F1xx_HAL_Driver/Src/stm32f1xx_hal_rtc.c **** 
 1550              		.loc 1 898 0
 1551 0050 9DF80670 		ldrb	r7, [sp, #6]	@ zero_extendqisi2
 896:./Drivers/STM32F1xx_HAL_Driver/Src/stm32f1xx_hal_rtc.c ****                       ((uint32_t)stime.Minutes * 60U) + \
 1552              		.loc 1 896 0
 1553 0054 1F44     		add	r7, r7, r3
 1554              	.LVL200:
 900:./Drivers/STM32F1xx_HAL_Driver/Src/stm32f1xx_hal_rtc.c ****   {
 1555              		.loc 1 900 0
 1556 0056 5EB9     		cbnz	r6, .L110
 906:./Drivers/STM32F1xx_HAL_Driver/Src/stm32f1xx_hal_rtc.c ****                         ((uint32_t)sAlarm->AlarmTime.Minutes * 60U) + \
 1557              		.loc 1 906 0
 1558 0058 2278     		ldrb	r2, [r4]	@ zero_extendqisi2
 907:./Drivers/STM32F1xx_HAL_Driver/Src/stm32f1xx_hal_rtc.c ****                         ((uint32_t)sAlarm->AlarmTime.Seconds));  
 1559              		.loc 1 907 0
 1560 005a 6378     		ldrb	r3, [r4, #1]	@ zero_extendqisi2
 1561 005c C3EB0313 		rsb	r3, r3, r3, lsl #4
 1562 0060 9900     		lsls	r1, r3, #2
 906:./Drivers/STM32F1xx_HAL_Driver/Src/stm32f1xx_hal_rtc.c ****                         ((uint32_t)sAlarm->AlarmTime.Minutes * 60U) + \
 1563              		.loc 1 906 0
 1564 0062 4FF46160 		mov	r0, #3600
 1565 0066 00FB0211 		mla	r1, r0, r2, r1
 908:./Drivers/STM32F1xx_HAL_Driver/Src/stm32f1xx_hal_rtc.c ****   }
 1566              		.loc 1 908 0
 1567 006a A378     		ldrb	r3, [r4, #2]	@ zero_extendqisi2
 906:./Drivers/STM32F1xx_HAL_Driver/Src/stm32f1xx_hal_rtc.c ****                         ((uint32_t)sAlarm->AlarmTime.Minutes * 60U) + \
 1568              		.loc 1 906 0
 1569 006c 1944     		add	r1, r1, r3
 1570              	.LVL201:
 1571 006e 11E0     		b	.L111
 1572              	.LVL202:
 1573              	.L110:
 916:./Drivers/STM32F1xx_HAL_Driver/Src/stm32f1xx_hal_rtc.c ****               ((uint32_t)(RTC_Bcd2ToByte(sAlarm->AlarmTime.Minutes)) * 60U) + \
 1574              		.loc 1 916 0
ARM GAS  /tmp/ccTzASZE.s 			page 62


 1575 0070 2078     		ldrb	r0, [r4]	@ zero_extendqisi2
 1576 0072 FFF7FEFF 		bl	RTC_Bcd2ToByte
 1577              	.LVL203:
 1578 0076 4FF46166 		mov	r6, #3600
 1579              	.LVL204:
 1580 007a 06FB00F6 		mul	r6, r6, r0
 917:./Drivers/STM32F1xx_HAL_Driver/Src/stm32f1xx_hal_rtc.c ****               ((uint32_t)RTC_Bcd2ToByte(sAlarm->AlarmTime.Seconds)));   
 1581              		.loc 1 917 0
 1582 007e 6078     		ldrb	r0, [r4, #1]	@ zero_extendqisi2
 1583 0080 FFF7FEFF 		bl	RTC_Bcd2ToByte
 1584              	.LVL205:
 1585 0084 C0EB0010 		rsb	r0, r0, r0, lsl #4
 1586 0088 8100     		lsls	r1, r0, #2
 916:./Drivers/STM32F1xx_HAL_Driver/Src/stm32f1xx_hal_rtc.c ****               ((uint32_t)(RTC_Bcd2ToByte(sAlarm->AlarmTime.Minutes)) * 60U) + \
 1587              		.loc 1 916 0
 1588 008a 0E44     		add	r6, r6, r1
 918:./Drivers/STM32F1xx_HAL_Driver/Src/stm32f1xx_hal_rtc.c ****   }
 1589              		.loc 1 918 0
 1590 008c A078     		ldrb	r0, [r4, #2]	@ zero_extendqisi2
 1591 008e FFF7FEFF 		bl	RTC_Bcd2ToByte
 1592              	.LVL206:
 916:./Drivers/STM32F1xx_HAL_Driver/Src/stm32f1xx_hal_rtc.c ****               ((uint32_t)(RTC_Bcd2ToByte(sAlarm->AlarmTime.Minutes)) * 60U) + \
 1593              		.loc 1 916 0
 1594 0092 3118     		adds	r1, r6, r0
 1595              	.LVL207:
 1596              	.L111:
 922:./Drivers/STM32F1xx_HAL_Driver/Src/stm32f1xx_hal_rtc.c ****   {
 1597              		.loc 1 922 0
 1598 0094 B942     		cmp	r1, r7
 1599 0096 03D2     		bcs	.L112
 925:./Drivers/STM32F1xx_HAL_Driver/Src/stm32f1xx_hal_rtc.c ****   }
 1600              		.loc 1 925 0
 1601 0098 01F5A831 		add	r1, r1, #86016
 1602              	.LVL208:
 1603 009c 01F5C071 		add	r1, r1, #384
 1604              	.LVL209:
 1605              	.L112:
 929:./Drivers/STM32F1xx_HAL_Driver/Src/stm32f1xx_hal_rtc.c ****   {
 1606              		.loc 1 929 0
 1607 00a0 2846     		mov	r0, r5
 1608 00a2 FFF7FEFF 		bl	RTC_WriteAlarmCounter
 1609              	.LVL210:
 1610 00a6 0346     		mov	r3, r0
 1611 00a8 28B1     		cbz	r0, .L113
 932:./Drivers/STM32F1xx_HAL_Driver/Src/stm32f1xx_hal_rtc.c ****     
 1612              		.loc 1 932 0
 1613 00aa 0423     		movs	r3, #4
 1614 00ac 6B74     		strb	r3, [r5, #17]
 935:./Drivers/STM32F1xx_HAL_Driver/Src/stm32f1xx_hal_rtc.c ****     
 1615              		.loc 1 935 0
 1616 00ae 0023     		movs	r3, #0
 1617 00b0 2B74     		strb	r3, [r5, #16]
 937:./Drivers/STM32F1xx_HAL_Driver/Src/stm32f1xx_hal_rtc.c ****   }
 1618              		.loc 1 937 0
 1619 00b2 0123     		movs	r3, #1
 1620 00b4 0BE0     		b	.L109
 1621              	.L113:
ARM GAS  /tmp/ccTzASZE.s 			page 63


 941:./Drivers/STM32F1xx_HAL_Driver/Src/stm32f1xx_hal_rtc.c ****   
 1622              		.loc 1 941 0
 1623 00b6 0122     		movs	r2, #1
 1624 00b8 6A74     		strb	r2, [r5, #17]
 943:./Drivers/STM32F1xx_HAL_Driver/Src/stm32f1xx_hal_rtc.c ****      
 1625              		.loc 1 943 0
 1626 00ba 0022     		movs	r2, #0
 1627 00bc 2A74     		strb	r2, [r5, #16]
 945:./Drivers/STM32F1xx_HAL_Driver/Src/stm32f1xx_hal_rtc.c ****   }
 1628              		.loc 1 945 0
 1629 00be 06E0     		b	.L109
 1630              	.LVL211:
 1631              	.L114:
 877:./Drivers/STM32F1xx_HAL_Driver/Src/stm32f1xx_hal_rtc.c ****   }
 1632              		.loc 1 877 0
 1633 00c0 0123     		movs	r3, #1
 1634 00c2 04E0     		b	.L109
 1635              	.L115:
 1636 00c4 0123     		movs	r3, #1
 1637 00c6 02E0     		b	.L109
 1638              	.LVL212:
 1639              	.L116:
 885:./Drivers/STM32F1xx_HAL_Driver/Src/stm32f1xx_hal_rtc.c ****   
 1640              		.loc 1 885 0
 1641 00c8 0223     		movs	r3, #2
 1642              	.LVL213:
 1643 00ca 00E0     		b	.L109
 1644              	.LVL214:
 1645              	.L117:
 892:./Drivers/STM32F1xx_HAL_Driver/Src/stm32f1xx_hal_rtc.c ****   }
 1646              		.loc 1 892 0
 1647 00cc 0123     		movs	r3, #1
 1648              	.LVL215:
 1649              	.L109:
 947:./Drivers/STM32F1xx_HAL_Driver/Src/stm32f1xx_hal_rtc.c **** 
 1650              		.loc 1 947 0
 1651 00ce 1846     		mov	r0, r3
 1652 00d0 03B0     		add	sp, sp, #12
 1653              	.LCFI21:
 1654              		.cfi_def_cfa_offset 20
 1655              		@ sp needed
 1656 00d2 F0BD     		pop	{r4, r5, r6, r7, pc}
 1657              		.cfi_endproc
 1658              	.LFE72:
 1660              		.section	.text.HAL_RTC_SetAlarm_IT,"ax",%progbits
 1661              		.align	2
 1662              		.global	HAL_RTC_SetAlarm_IT
 1663              		.thumb
 1664              		.thumb_func
 1666              	HAL_RTC_SetAlarm_IT:
 1667              	.LFB73:
 962:./Drivers/STM32F1xx_HAL_Driver/Src/stm32f1xx_hal_rtc.c ****   uint32_t counter_alarm = 0U, counter_time;
 1668              		.loc 1 962 0
 1669              		.cfi_startproc
 1670              		@ args = 0, pretend = 0, frame = 8
 1671              		@ frame_needed = 0, uses_anonymous_args = 0
 1672              	.LVL216:
ARM GAS  /tmp/ccTzASZE.s 			page 64


 1673 0000 F0B5     		push	{r4, r5, r6, r7, lr}
 1674              	.LCFI22:
 1675              		.cfi_def_cfa_offset 20
 1676              		.cfi_offset 4, -20
 1677              		.cfi_offset 5, -16
 1678              		.cfi_offset 6, -12
 1679              		.cfi_offset 7, -8
 1680              		.cfi_offset 14, -4
 1681 0002 83B0     		sub	sp, sp, #12
 1682              	.LCFI23:
 1683              		.cfi_def_cfa_offset 32
 1684              	.LVL217:
 964:./Drivers/STM32F1xx_HAL_Driver/Src/stm32f1xx_hal_rtc.c ****   
 1685              		.loc 1 964 0
 1686 0004 0023     		movs	r3, #0
 1687 0006 ADF80430 		strh	r3, [sp, #4]	@ movhi
 1688 000a 8DF80630 		strb	r3, [sp, #6]
 967:./Drivers/STM32F1xx_HAL_Driver/Src/stm32f1xx_hal_rtc.c ****   {
 1689              		.loc 1 967 0
 1690 000e 0028     		cmp	r0, #0
 1691 0010 68D0     		beq	.L125
 1692 0012 0346     		mov	r3, r0
 967:./Drivers/STM32F1xx_HAL_Driver/Src/stm32f1xx_hal_rtc.c ****   {
 1693              		.loc 1 967 0 is_stmt 0 discriminator 1
 1694 0014 0029     		cmp	r1, #0
 1695 0016 67D0     		beq	.L126
 977:./Drivers/STM32F1xx_HAL_Driver/Src/stm32f1xx_hal_rtc.c ****   
 1696              		.loc 1 977 0 is_stmt 1
 1697 0018 007C     		ldrb	r0, [r0, #16]	@ zero_extendqisi2
 1698              	.LVL218:
 1699 001a 0128     		cmp	r0, #1
 1700 001c 66D0     		beq	.L127
 1701 001e 1D46     		mov	r5, r3
 1702 0020 1646     		mov	r6, r2
 1703 0022 0C46     		mov	r4, r1
 977:./Drivers/STM32F1xx_HAL_Driver/Src/stm32f1xx_hal_rtc.c ****   
 1704              		.loc 1 977 0 is_stmt 0 discriminator 2
 1705 0024 0123     		movs	r3, #1
 1706              	.LVL219:
 1707 0026 2B74     		strb	r3, [r5, #16]
 979:./Drivers/STM32F1xx_HAL_Driver/Src/stm32f1xx_hal_rtc.c ****   
 1708              		.loc 1 979 0 is_stmt 1 discriminator 2
 1709 0028 0223     		movs	r3, #2
 1710 002a 6B74     		strb	r3, [r5, #17]
 982:./Drivers/STM32F1xx_HAL_Driver/Src/stm32f1xx_hal_rtc.c ****   {
 1711              		.loc 1 982 0 discriminator 2
 1712 002c 0022     		movs	r2, #0
 1713              	.LVL220:
 1714 002e 01A9     		add	r1, sp, #4
 1715              	.LVL221:
 1716 0030 2846     		mov	r0, r5
 1717 0032 FFF7FEFF 		bl	HAL_RTC_GetTime
 1718              	.LVL222:
 1719 0036 0028     		cmp	r0, #0
 1720 0038 5AD1     		bne	.L128
 988:./Drivers/STM32F1xx_HAL_Driver/Src/stm32f1xx_hal_rtc.c ****                       ((uint32_t)stime.Minutes * 60U) + \
 1721              		.loc 1 988 0
ARM GAS  /tmp/ccTzASZE.s 			page 65


 1722 003a 9DF80420 		ldrb	r2, [sp, #4]	@ zero_extendqisi2
 989:./Drivers/STM32F1xx_HAL_Driver/Src/stm32f1xx_hal_rtc.c ****                       ((uint32_t)stime.Seconds));  
 1723              		.loc 1 989 0
 1724 003e 9DF80530 		ldrb	r3, [sp, #5]	@ zero_extendqisi2
 1725 0042 C3EB0313 		rsb	r3, r3, r3, lsl #4
 1726 0046 9900     		lsls	r1, r3, #2
 988:./Drivers/STM32F1xx_HAL_Driver/Src/stm32f1xx_hal_rtc.c ****                       ((uint32_t)stime.Minutes * 60U) + \
 1727              		.loc 1 988 0
 1728 0048 4FF46167 		mov	r7, #3600
 1729 004c 07FB0213 		mla	r3, r7, r2, r1
 990:./Drivers/STM32F1xx_HAL_Driver/Src/stm32f1xx_hal_rtc.c **** 
 1730              		.loc 1 990 0
 1731 0050 9DF80670 		ldrb	r7, [sp, #6]	@ zero_extendqisi2
 988:./Drivers/STM32F1xx_HAL_Driver/Src/stm32f1xx_hal_rtc.c ****                       ((uint32_t)stime.Minutes * 60U) + \
 1732              		.loc 1 988 0
 1733 0054 1F44     		add	r7, r7, r3
 1734              	.LVL223:
 992:./Drivers/STM32F1xx_HAL_Driver/Src/stm32f1xx_hal_rtc.c ****   {
 1735              		.loc 1 992 0
 1736 0056 5EB9     		cbnz	r6, .L121
 998:./Drivers/STM32F1xx_HAL_Driver/Src/stm32f1xx_hal_rtc.c ****       ((uint32_t)sAlarm->AlarmTime.Minutes * 60U) + \
 1737              		.loc 1 998 0
 1738 0058 2278     		ldrb	r2, [r4]	@ zero_extendqisi2
 999:./Drivers/STM32F1xx_HAL_Driver/Src/stm32f1xx_hal_rtc.c ****         ((uint32_t)sAlarm->AlarmTime.Seconds));  
 1739              		.loc 1 999 0
 1740 005a 6378     		ldrb	r3, [r4, #1]	@ zero_extendqisi2
 1741 005c C3EB0313 		rsb	r3, r3, r3, lsl #4
 1742 0060 9900     		lsls	r1, r3, #2
 998:./Drivers/STM32F1xx_HAL_Driver/Src/stm32f1xx_hal_rtc.c ****       ((uint32_t)sAlarm->AlarmTime.Minutes * 60U) + \
 1743              		.loc 1 998 0
 1744 0062 4FF46160 		mov	r0, #3600
 1745 0066 00FB0211 		mla	r1, r0, r2, r1
1000:./Drivers/STM32F1xx_HAL_Driver/Src/stm32f1xx_hal_rtc.c ****   }
 1746              		.loc 1 1000 0
 1747 006a A378     		ldrb	r3, [r4, #2]	@ zero_extendqisi2
 998:./Drivers/STM32F1xx_HAL_Driver/Src/stm32f1xx_hal_rtc.c ****       ((uint32_t)sAlarm->AlarmTime.Minutes * 60U) + \
 1748              		.loc 1 998 0
 1749 006c 1944     		add	r1, r1, r3
 1750              	.LVL224:
 1751 006e 11E0     		b	.L122
 1752              	.LVL225:
 1753              	.L121:
1008:./Drivers/STM32F1xx_HAL_Driver/Src/stm32f1xx_hal_rtc.c ****                      ((uint32_t)(RTC_Bcd2ToByte(sAlarm->AlarmTime.Minutes)) * 60U) + \
 1754              		.loc 1 1008 0
 1755 0070 2078     		ldrb	r0, [r4]	@ zero_extendqisi2
 1756 0072 FFF7FEFF 		bl	RTC_Bcd2ToByte
 1757              	.LVL226:
 1758 0076 4FF46166 		mov	r6, #3600
 1759              	.LVL227:
 1760 007a 06FB00F6 		mul	r6, r6, r0
1009:./Drivers/STM32F1xx_HAL_Driver/Src/stm32f1xx_hal_rtc.c ****                      ((uint32_t)RTC_Bcd2ToByte(sAlarm->AlarmTime.Seconds)));   
 1761              		.loc 1 1009 0
 1762 007e 6078     		ldrb	r0, [r4, #1]	@ zero_extendqisi2
 1763 0080 FFF7FEFF 		bl	RTC_Bcd2ToByte
 1764              	.LVL228:
 1765 0084 C0EB0010 		rsb	r0, r0, r0, lsl #4
 1766 0088 8100     		lsls	r1, r0, #2
ARM GAS  /tmp/ccTzASZE.s 			page 66


1008:./Drivers/STM32F1xx_HAL_Driver/Src/stm32f1xx_hal_rtc.c ****                      ((uint32_t)(RTC_Bcd2ToByte(sAlarm->AlarmTime.Minutes)) * 60U) + \
 1767              		.loc 1 1008 0
 1768 008a 0E44     		add	r6, r6, r1
1010:./Drivers/STM32F1xx_HAL_Driver/Src/stm32f1xx_hal_rtc.c ****   }
 1769              		.loc 1 1010 0
 1770 008c A078     		ldrb	r0, [r4, #2]	@ zero_extendqisi2
 1771 008e FFF7FEFF 		bl	RTC_Bcd2ToByte
 1772              	.LVL229:
1008:./Drivers/STM32F1xx_HAL_Driver/Src/stm32f1xx_hal_rtc.c ****                      ((uint32_t)(RTC_Bcd2ToByte(sAlarm->AlarmTime.Minutes)) * 60U) + \
 1773              		.loc 1 1008 0
 1774 0092 3118     		adds	r1, r6, r0
 1775              	.LVL230:
 1776              	.L122:
1014:./Drivers/STM32F1xx_HAL_Driver/Src/stm32f1xx_hal_rtc.c ****   {
 1777              		.loc 1 1014 0
 1778 0094 B942     		cmp	r1, r7
 1779 0096 03D2     		bcs	.L123
1017:./Drivers/STM32F1xx_HAL_Driver/Src/stm32f1xx_hal_rtc.c ****   }
 1780              		.loc 1 1017 0
 1781 0098 01F5A831 		add	r1, r1, #86016
 1782              	.LVL231:
 1783 009c 01F5C071 		add	r1, r1, #384
 1784              	.LVL232:
 1785              	.L123:
1021:./Drivers/STM32F1xx_HAL_Driver/Src/stm32f1xx_hal_rtc.c ****   {
 1786              		.loc 1 1021 0
 1787 00a0 2846     		mov	r0, r5
 1788 00a2 FFF7FEFF 		bl	RTC_WriteAlarmCounter
 1789              	.LVL233:
 1790 00a6 0346     		mov	r3, r0
 1791 00a8 28B1     		cbz	r0, .L124
1024:./Drivers/STM32F1xx_HAL_Driver/Src/stm32f1xx_hal_rtc.c ****     
 1792              		.loc 1 1024 0
 1793 00aa 0423     		movs	r3, #4
 1794 00ac 6B74     		strb	r3, [r5, #17]
1027:./Drivers/STM32F1xx_HAL_Driver/Src/stm32f1xx_hal_rtc.c ****     
 1795              		.loc 1 1027 0
 1796 00ae 0023     		movs	r3, #0
 1797 00b0 2B74     		strb	r3, [r5, #16]
1029:./Drivers/STM32F1xx_HAL_Driver/Src/stm32f1xx_hal_rtc.c ****   }
 1798              		.loc 1 1029 0
 1799 00b2 0123     		movs	r3, #1
 1800 00b4 1DE0     		b	.L120
 1801              	.L124:
1034:./Drivers/STM32F1xx_HAL_Driver/Src/stm32f1xx_hal_rtc.c ****     
 1802              		.loc 1 1034 0
 1803 00b6 2A68     		ldr	r2, [r5]
 1804 00b8 6FF00201 		mvn	r1, #2
 1805 00bc 5160     		str	r1, [r2, #4]
1037:./Drivers/STM32F1xx_HAL_Driver/Src/stm32f1xx_hal_rtc.c ****     
 1806              		.loc 1 1037 0
 1807 00be 2968     		ldr	r1, [r5]
 1808 00c0 0A68     		ldr	r2, [r1]
 1809 00c2 42F00202 		orr	r2, r2, #2
 1810 00c6 0A60     		str	r2, [r1]
1040:./Drivers/STM32F1xx_HAL_Driver/Src/stm32f1xx_hal_rtc.c ****     
 1811              		.loc 1 1040 0
ARM GAS  /tmp/ccTzASZE.s 			page 67


 1812 00c8 0B4A     		ldr	r2, .L130
 1813 00ca 1168     		ldr	r1, [r2]
 1814 00cc 41F40031 		orr	r1, r1, #131072
 1815 00d0 1160     		str	r1, [r2]
1042:./Drivers/STM32F1xx_HAL_Driver/Src/stm32f1xx_hal_rtc.c **** 
 1816              		.loc 1 1042 0
 1817 00d2 9168     		ldr	r1, [r2, #8]
 1818 00d4 41F40031 		orr	r1, r1, #131072
 1819 00d8 9160     		str	r1, [r2, #8]
1044:./Drivers/STM32F1xx_HAL_Driver/Src/stm32f1xx_hal_rtc.c ****   
 1820              		.loc 1 1044 0
 1821 00da 0122     		movs	r2, #1
 1822 00dc 6A74     		strb	r2, [r5, #17]
1046:./Drivers/STM32F1xx_HAL_Driver/Src/stm32f1xx_hal_rtc.c ****      
 1823              		.loc 1 1046 0
 1824 00de 0022     		movs	r2, #0
 1825 00e0 2A74     		strb	r2, [r5, #16]
1048:./Drivers/STM32F1xx_HAL_Driver/Src/stm32f1xx_hal_rtc.c ****   }
 1826              		.loc 1 1048 0
 1827 00e2 06E0     		b	.L120
 1828              	.LVL234:
 1829              	.L125:
 969:./Drivers/STM32F1xx_HAL_Driver/Src/stm32f1xx_hal_rtc.c ****   }
 1830              		.loc 1 969 0
 1831 00e4 0123     		movs	r3, #1
 1832 00e6 04E0     		b	.L120
 1833              	.L126:
 1834 00e8 0123     		movs	r3, #1
 1835 00ea 02E0     		b	.L120
 1836              	.LVL235:
 1837              	.L127:
 977:./Drivers/STM32F1xx_HAL_Driver/Src/stm32f1xx_hal_rtc.c ****   
 1838              		.loc 1 977 0
 1839 00ec 0223     		movs	r3, #2
 1840              	.LVL236:
 1841 00ee 00E0     		b	.L120
 1842              	.LVL237:
 1843              	.L128:
 984:./Drivers/STM32F1xx_HAL_Driver/Src/stm32f1xx_hal_rtc.c ****   }
 1844              		.loc 1 984 0
 1845 00f0 0123     		movs	r3, #1
 1846              	.LVL238:
 1847              	.L120:
1050:./Drivers/STM32F1xx_HAL_Driver/Src/stm32f1xx_hal_rtc.c **** 
 1848              		.loc 1 1050 0
 1849 00f2 1846     		mov	r0, r3
 1850 00f4 03B0     		add	sp, sp, #12
 1851              	.LCFI24:
 1852              		.cfi_def_cfa_offset 20
 1853              		@ sp needed
 1854 00f6 F0BD     		pop	{r4, r5, r6, r7, pc}
 1855              	.L131:
 1856              		.align	2
 1857              	.L130:
 1858 00f8 00040140 		.word	1073808384
 1859              		.cfi_endproc
 1860              	.LFE73:
ARM GAS  /tmp/ccTzASZE.s 			page 68


 1862              		.section	.text.HAL_RTC_GetAlarm,"ax",%progbits
 1863              		.align	2
 1864              		.global	HAL_RTC_GetAlarm
 1865              		.thumb
 1866              		.thumb_func
 1868              	HAL_RTC_GetAlarm:
 1869              	.LFB74:
1067:./Drivers/STM32F1xx_HAL_Driver/Src/stm32f1xx_hal_rtc.c ****   uint32_t counter_alarm = 0U;
 1870              		.loc 1 1067 0
 1871              		.cfi_startproc
 1872              		@ args = 0, pretend = 0, frame = 0
 1873              		@ frame_needed = 0, uses_anonymous_args = 0
 1874              	.LVL239:
1074:./Drivers/STM32F1xx_HAL_Driver/Src/stm32f1xx_hal_rtc.c ****   {
 1875              		.loc 1 1074 0
 1876 0000 90B3     		cbz	r0, .L134
1074:./Drivers/STM32F1xx_HAL_Driver/Src/stm32f1xx_hal_rtc.c ****   {
 1877              		.loc 1 1074 0 is_stmt 0 discriminator 1
 1878 0002 99B3     		cbz	r1, .L135
1067:./Drivers/STM32F1xx_HAL_Driver/Src/stm32f1xx_hal_rtc.c ****   uint32_t counter_alarm = 0U;
 1879              		.loc 1 1067 0 is_stmt 1
 1880 0004 F8B5     		push	{r3, r4, r5, r6, r7, lr}
 1881              	.LCFI25:
 1882              		.cfi_def_cfa_offset 24
 1883              		.cfi_offset 3, -24
 1884              		.cfi_offset 4, -20
 1885              		.cfi_offset 5, -16
 1886              		.cfi_offset 6, -12
 1887              		.cfi_offset 7, -8
 1888              		.cfi_offset 14, -4
 1889 0006 1D46     		mov	r5, r3
 1890 0008 0C46     		mov	r4, r1
1084:./Drivers/STM32F1xx_HAL_Driver/Src/stm32f1xx_hal_rtc.c **** 
 1891              		.loc 1 1084 0
 1892 000a FFF7FEFF 		bl	RTC_ReadAlarmCounter
 1893              	.LVL240:
1088:./Drivers/STM32F1xx_HAL_Driver/Src/stm32f1xx_hal_rtc.c ****   sAlarm->AlarmTime.Minutes = (uint32_t)((counter_alarm % 3600U) / 60U);
 1894              		.loc 1 1088 0
 1895 000e 1949     		ldr	r1, .L139
 1896 0010 A1FB0031 		umull	r3, r1, r1, r0
 1897 0014 C90A     		lsrs	r1, r1, #11
 1898 0016 184A     		ldr	r2, .L139+4
 1899 0018 A2FB0132 		umull	r3, r2, r2, r1
 1900 001c 1209     		lsrs	r2, r2, #4
 1901 001e 02EB4202 		add	r2, r2, r2, lsl #1
 1902 0022 D300     		lsls	r3, r2, #3
 1903 0024 CA1A     		subs	r2, r1, r3
 1904 0026 D3B2     		uxtb	r3, r2
 1905 0028 2370     		strb	r3, [r4]
1089:./Drivers/STM32F1xx_HAL_Driver/Src/stm32f1xx_hal_rtc.c ****   sAlarm->AlarmTime.Seconds = (uint32_t)((counter_alarm % 3600U) % 60U);
 1906              		.loc 1 1089 0
 1907 002a 4FF46167 		mov	r7, #3600
 1908 002e 07FB1107 		mls	r7, r7, r1, r0
 1909 0032 124A     		ldr	r2, .L139+8
 1910 0034 A2FB0712 		umull	r1, r2, r2, r7
 1911 0038 5209     		lsrs	r2, r2, #5
 1912 003a D6B2     		uxtb	r6, r2
ARM GAS  /tmp/ccTzASZE.s 			page 69


 1913 003c 6670     		strb	r6, [r4, #1]
1090:./Drivers/STM32F1xx_HAL_Driver/Src/stm32f1xx_hal_rtc.c ****   
 1914              		.loc 1 1090 0
 1915 003e C2EB0212 		rsb	r2, r2, r2, lsl #4
 1916 0042 9000     		lsls	r0, r2, #2
 1917              	.LVL241:
 1918 0044 381A     		subs	r0, r7, r0
 1919 0046 C7B2     		uxtb	r7, r0
 1920 0048 A770     		strb	r7, [r4, #2]
1092:./Drivers/STM32F1xx_HAL_Driver/Src/stm32f1xx_hal_rtc.c ****   {
 1921              		.loc 1 1092 0
 1922 004a 8DB1     		cbz	r5, .L136
1094:./Drivers/STM32F1xx_HAL_Driver/Src/stm32f1xx_hal_rtc.c ****     sAlarm->AlarmTime.Minutes = RTC_ByteToBcd2(sAlarm->AlarmTime.Minutes);
 1923              		.loc 1 1094 0
 1924 004c 1846     		mov	r0, r3
 1925 004e FFF7FEFF 		bl	RTC_ByteToBcd2
 1926              	.LVL242:
 1927 0052 2070     		strb	r0, [r4]
1095:./Drivers/STM32F1xx_HAL_Driver/Src/stm32f1xx_hal_rtc.c ****     sAlarm->AlarmTime.Seconds = RTC_ByteToBcd2(sAlarm->AlarmTime.Seconds);
 1928              		.loc 1 1095 0
 1929 0054 3046     		mov	r0, r6
 1930 0056 FFF7FEFF 		bl	RTC_ByteToBcd2
 1931              	.LVL243:
 1932 005a 6070     		strb	r0, [r4, #1]
1096:./Drivers/STM32F1xx_HAL_Driver/Src/stm32f1xx_hal_rtc.c ****   }  
 1933              		.loc 1 1096 0
 1934 005c 3846     		mov	r0, r7
 1935 005e FFF7FEFF 		bl	RTC_ByteToBcd2
 1936              	.LVL244:
 1937 0062 A070     		strb	r0, [r4, #2]
1099:./Drivers/STM32F1xx_HAL_Driver/Src/stm32f1xx_hal_rtc.c **** }
 1938              		.loc 1 1099 0
 1939 0064 0020     		movs	r0, #0
 1940 0066 F8BD     		pop	{r3, r4, r5, r6, r7, pc}
 1941              	.LVL245:
 1942              	.L134:
 1943              	.LCFI26:
 1944              		.cfi_def_cfa_offset 0
 1945              		.cfi_restore 3
 1946              		.cfi_restore 4
 1947              		.cfi_restore 5
 1948              		.cfi_restore 6
 1949              		.cfi_restore 7
 1950              		.cfi_restore 14
1076:./Drivers/STM32F1xx_HAL_Driver/Src/stm32f1xx_hal_rtc.c ****   }
 1951              		.loc 1 1076 0
 1952 0068 0120     		movs	r0, #1
 1953              	.LVL246:
1100:./Drivers/STM32F1xx_HAL_Driver/Src/stm32f1xx_hal_rtc.c **** 
 1954              		.loc 1 1100 0
 1955 006a 7047     		bx	lr
 1956              	.LVL247:
 1957              	.L135:
1076:./Drivers/STM32F1xx_HAL_Driver/Src/stm32f1xx_hal_rtc.c ****   }
 1958              		.loc 1 1076 0
 1959 006c 0120     		movs	r0, #1
 1960              	.LVL248:
ARM GAS  /tmp/ccTzASZE.s 			page 70


 1961 006e 7047     		bx	lr
 1962              	.LVL249:
 1963              	.L136:
 1964              	.LCFI27:
 1965              		.cfi_def_cfa_offset 24
 1966              		.cfi_offset 3, -24
 1967              		.cfi_offset 4, -20
 1968              		.cfi_offset 5, -16
 1969              		.cfi_offset 6, -12
 1970              		.cfi_offset 7, -8
 1971              		.cfi_offset 14, -4
1099:./Drivers/STM32F1xx_HAL_Driver/Src/stm32f1xx_hal_rtc.c **** }
 1972              		.loc 1 1099 0
 1973 0070 0020     		movs	r0, #0
1100:./Drivers/STM32F1xx_HAL_Driver/Src/stm32f1xx_hal_rtc.c **** 
 1974              		.loc 1 1100 0
 1975 0072 F8BD     		pop	{r3, r4, r5, r6, r7, pc}
 1976              	.LVL250:
 1977              	.L140:
 1978              		.align	2
 1979              	.L139:
 1980 0074 C5B3A291 		.word	-1851608123
 1981 0078 ABAAAAAA 		.word	-1431655765
 1982 007c 89888888 		.word	-2004318071
 1983              		.cfi_endproc
 1984              	.LFE74:
 1986              		.section	.text.HAL_RTC_DeactivateAlarm,"ax",%progbits
 1987              		.align	2
 1988              		.global	HAL_RTC_DeactivateAlarm
 1989              		.thumb
 1990              		.thumb_func
 1992              	HAL_RTC_DeactivateAlarm:
 1993              	.LFB75:
1112:./Drivers/STM32F1xx_HAL_Driver/Src/stm32f1xx_hal_rtc.c ****   /* Prevent unused argument(s) compilation warning */
 1994              		.loc 1 1112 0
 1995              		.cfi_startproc
 1996              		@ args = 0, pretend = 0, frame = 0
 1997              		@ frame_needed = 0, uses_anonymous_args = 0
 1998              	.LVL251:
1120:./Drivers/STM32F1xx_HAL_Driver/Src/stm32f1xx_hal_rtc.c ****   {
 1999              		.loc 1 1120 0
 2000 0000 0028     		cmp	r0, #0
 2001 0002 35D0     		beq	.L145
1112:./Drivers/STM32F1xx_HAL_Driver/Src/stm32f1xx_hal_rtc.c ****   /* Prevent unused argument(s) compilation warning */
 2002              		.loc 1 1112 0
 2003 0004 10B5     		push	{r4, lr}
 2004              	.LCFI28:
 2005              		.cfi_def_cfa_offset 8
 2006              		.cfi_offset 4, -8
 2007              		.cfi_offset 14, -4
 2008 0006 0446     		mov	r4, r0
1126:./Drivers/STM32F1xx_HAL_Driver/Src/stm32f1xx_hal_rtc.c ****   
 2009              		.loc 1 1126 0
 2010 0008 037C     		ldrb	r3, [r0, #16]	@ zero_extendqisi2
 2011 000a 012B     		cmp	r3, #1
 2012 000c 33D0     		beq	.L146
1126:./Drivers/STM32F1xx_HAL_Driver/Src/stm32f1xx_hal_rtc.c ****   
ARM GAS  /tmp/ccTzASZE.s 			page 71


 2013              		.loc 1 1126 0 is_stmt 0 discriminator 2
 2014 000e 0123     		movs	r3, #1
 2015 0010 0374     		strb	r3, [r0, #16]
1128:./Drivers/STM32F1xx_HAL_Driver/Src/stm32f1xx_hal_rtc.c ****   
 2016              		.loc 1 1128 0 is_stmt 1 discriminator 2
 2017 0012 0223     		movs	r3, #2
 2018 0014 4374     		strb	r3, [r0, #17]
1131:./Drivers/STM32F1xx_HAL_Driver/Src/stm32f1xx_hal_rtc.c ****   
 2019              		.loc 1 1131 0 discriminator 2
 2020 0016 0268     		ldr	r2, [r0]
 2021 0018 1368     		ldr	r3, [r2]
 2022 001a 23F00203 		bic	r3, r3, #2
 2023 001e 1360     		str	r3, [r2]
1134:./Drivers/STM32F1xx_HAL_Driver/Src/stm32f1xx_hal_rtc.c ****   {
 2024              		.loc 1 1134 0 discriminator 2
 2025 0020 FFF7FEFF 		bl	RTC_EnterInitMode
 2026              	.LVL252:
 2027 0024 28B1     		cbz	r0, .L143
1137:./Drivers/STM32F1xx_HAL_Driver/Src/stm32f1xx_hal_rtc.c ****     
 2028              		.loc 1 1137 0
 2029 0026 0423     		movs	r3, #4
 2030 0028 6374     		strb	r3, [r4, #17]
1140:./Drivers/STM32F1xx_HAL_Driver/Src/stm32f1xx_hal_rtc.c ****     
 2031              		.loc 1 1140 0
 2032 002a 0023     		movs	r3, #0
 2033 002c 2374     		strb	r3, [r4, #16]
1142:./Drivers/STM32F1xx_HAL_Driver/Src/stm32f1xx_hal_rtc.c ****   } 
 2034              		.loc 1 1142 0
 2035 002e 0123     		movs	r3, #1
 2036 0030 22E0     		b	.L142
 2037              	.L143:
1147:./Drivers/STM32F1xx_HAL_Driver/Src/stm32f1xx_hal_rtc.c ****     
 2038              		.loc 1 1147 0
 2039 0032 2368     		ldr	r3, [r4]
 2040 0034 6FF00202 		mvn	r2, #2
 2041 0038 5A60     		str	r2, [r3, #4]
1150:./Drivers/STM32F1xx_HAL_Driver/Src/stm32f1xx_hal_rtc.c ****     WRITE_REG(hrtc->Instance->ALRL, RTC_ALARM_RESETVALUE_REGISTER);
 2042              		.loc 1 1150 0
 2043 003a 2268     		ldr	r2, [r4]
 2044 003c 4FF6FF73 		movw	r3, #65535
 2045 0040 1362     		str	r3, [r2, #32]
1151:./Drivers/STM32F1xx_HAL_Driver/Src/stm32f1xx_hal_rtc.c **** 
 2046              		.loc 1 1151 0
 2047 0042 2268     		ldr	r2, [r4]
 2048 0044 5362     		str	r3, [r2, #36]
1154:./Drivers/STM32F1xx_HAL_Driver/Src/stm32f1xx_hal_rtc.c ****     
 2049              		.loc 1 1154 0
 2050 0046 0D4A     		ldr	r2, .L148
 2051 0048 1368     		ldr	r3, [r2]
 2052 004a 23F40033 		bic	r3, r3, #131072
 2053 004e 1360     		str	r3, [r2]
1157:./Drivers/STM32F1xx_HAL_Driver/Src/stm32f1xx_hal_rtc.c ****     {       
 2054              		.loc 1 1157 0
 2055 0050 2046     		mov	r0, r4
 2056 0052 FFF7FEFF 		bl	RTC_ExitInitMode
 2057              	.LVL253:
 2058 0056 0346     		mov	r3, r0
ARM GAS  /tmp/ccTzASZE.s 			page 72


 2059 0058 28B1     		cbz	r0, .L144
1159:./Drivers/STM32F1xx_HAL_Driver/Src/stm32f1xx_hal_rtc.c ****       
 2060              		.loc 1 1159 0
 2061 005a 0423     		movs	r3, #4
 2062 005c 6374     		strb	r3, [r4, #17]
1162:./Drivers/STM32F1xx_HAL_Driver/Src/stm32f1xx_hal_rtc.c ****       
 2063              		.loc 1 1162 0
 2064 005e 0023     		movs	r3, #0
 2065 0060 2374     		strb	r3, [r4, #16]
1164:./Drivers/STM32F1xx_HAL_Driver/Src/stm32f1xx_hal_rtc.c ****     }
 2066              		.loc 1 1164 0
 2067 0062 0123     		movs	r3, #1
 2068 0064 08E0     		b	.L142
 2069              	.L144:
1167:./Drivers/STM32F1xx_HAL_Driver/Src/stm32f1xx_hal_rtc.c ****   
 2070              		.loc 1 1167 0
 2071 0066 0122     		movs	r2, #1
 2072 0068 6274     		strb	r2, [r4, #17]
1170:./Drivers/STM32F1xx_HAL_Driver/Src/stm32f1xx_hal_rtc.c ****   
 2073              		.loc 1 1170 0
 2074 006a 0022     		movs	r2, #0
 2075 006c 2274     		strb	r2, [r4, #16]
1172:./Drivers/STM32F1xx_HAL_Driver/Src/stm32f1xx_hal_rtc.c **** }
 2076              		.loc 1 1172 0
 2077 006e 03E0     		b	.L142
 2078              	.LVL254:
 2079              	.L145:
 2080              	.LCFI29:
 2081              		.cfi_def_cfa_offset 0
 2082              		.cfi_restore 4
 2083              		.cfi_restore 14
1122:./Drivers/STM32F1xx_HAL_Driver/Src/stm32f1xx_hal_rtc.c ****   }
 2084              		.loc 1 1122 0
 2085 0070 0123     		movs	r3, #1
1173:./Drivers/STM32F1xx_HAL_Driver/Src/stm32f1xx_hal_rtc.c **** 
 2086              		.loc 1 1173 0
 2087 0072 1846     		mov	r0, r3
 2088              	.LVL255:
 2089 0074 7047     		bx	lr
 2090              	.LVL256:
 2091              	.L146:
 2092              	.LCFI30:
 2093              		.cfi_def_cfa_offset 8
 2094              		.cfi_offset 4, -8
 2095              		.cfi_offset 14, -4
1126:./Drivers/STM32F1xx_HAL_Driver/Src/stm32f1xx_hal_rtc.c ****   
 2096              		.loc 1 1126 0
 2097 0076 0223     		movs	r3, #2
 2098              	.LVL257:
 2099              	.L142:
1173:./Drivers/STM32F1xx_HAL_Driver/Src/stm32f1xx_hal_rtc.c **** 
 2100              		.loc 1 1173 0
 2101 0078 1846     		mov	r0, r3
 2102 007a 10BD     		pop	{r4, pc}
 2103              	.LVL258:
 2104              	.L149:
 2105              		.align	2
ARM GAS  /tmp/ccTzASZE.s 			page 73


 2106              	.L148:
 2107 007c 00040140 		.word	1073808384
 2108              		.cfi_endproc
 2109              	.LFE75:
 2111              		.section	.text.HAL_RTC_AlarmAEventCallback,"ax",%progbits
 2112              		.align	2
 2113              		.weak	HAL_RTC_AlarmAEventCallback
 2114              		.thumb
 2115              		.thumb_func
 2117              	HAL_RTC_AlarmAEventCallback:
 2118              	.LFB77:
1210:./Drivers/STM32F1xx_HAL_Driver/Src/stm32f1xx_hal_rtc.c ****   /* Prevent unused argument(s) compilation warning */
 2119              		.loc 1 1210 0
 2120              		.cfi_startproc
 2121              		@ args = 0, pretend = 0, frame = 0
 2122              		@ frame_needed = 0, uses_anonymous_args = 0
 2123              		@ link register save eliminated.
 2124              	.LVL259:
 2125 0000 7047     		bx	lr
 2126              		.cfi_endproc
 2127              	.LFE77:
 2129 0002 00BF     		.section	.text.HAL_RTC_AlarmIRQHandler,"ax",%progbits
 2130              		.align	2
 2131              		.global	HAL_RTC_AlarmIRQHandler
 2132              		.thumb
 2133              		.thumb_func
 2135              	HAL_RTC_AlarmIRQHandler:
 2136              	.LFB76:
1182:./Drivers/STM32F1xx_HAL_Driver/Src/stm32f1xx_hal_rtc.c ****   if(__HAL_RTC_ALARM_GET_IT_SOURCE(hrtc, RTC_IT_ALRA))
 2137              		.loc 1 1182 0
 2138              		.cfi_startproc
 2139              		@ args = 0, pretend = 0, frame = 0
 2140              		@ frame_needed = 0, uses_anonymous_args = 0
 2141              	.LVL260:
1182:./Drivers/STM32F1xx_HAL_Driver/Src/stm32f1xx_hal_rtc.c ****   if(__HAL_RTC_ALARM_GET_IT_SOURCE(hrtc, RTC_IT_ALRA))
 2142              		.loc 1 1182 0
 2143 0000 10B5     		push	{r4, lr}
 2144              	.LCFI31:
 2145              		.cfi_def_cfa_offset 8
 2146              		.cfi_offset 4, -8
 2147              		.cfi_offset 14, -4
 2148 0002 0446     		mov	r4, r0
1183:./Drivers/STM32F1xx_HAL_Driver/Src/stm32f1xx_hal_rtc.c ****   {
 2149              		.loc 1 1183 0
 2150 0004 0368     		ldr	r3, [r0]
 2151 0006 1A68     		ldr	r2, [r3]
 2152 0008 12F0020F 		tst	r2, #2
 2153 000c 09D0     		beq	.L152
1186:./Drivers/STM32F1xx_HAL_Driver/Src/stm32f1xx_hal_rtc.c ****     {
 2154              		.loc 1 1186 0
 2155 000e 5B68     		ldr	r3, [r3, #4]
 2156 0010 13F0020F 		tst	r3, #2
 2157 0014 05D0     		beq	.L152
1189:./Drivers/STM32F1xx_HAL_Driver/Src/stm32f1xx_hal_rtc.c ****       
 2158              		.loc 1 1189 0
 2159 0016 FFF7FEFF 		bl	HAL_RTC_AlarmAEventCallback
 2160              	.LVL261:
ARM GAS  /tmp/ccTzASZE.s 			page 74


1192:./Drivers/STM32F1xx_HAL_Driver/Src/stm32f1xx_hal_rtc.c ****     }
 2161              		.loc 1 1192 0
 2162 001a 2368     		ldr	r3, [r4]
 2163 001c 6FF00202 		mvn	r2, #2
 2164 0020 5A60     		str	r2, [r3, #4]
 2165              	.L152:
1197:./Drivers/STM32F1xx_HAL_Driver/Src/stm32f1xx_hal_rtc.c ****   
 2166              		.loc 1 1197 0
 2167 0022 4FF40032 		mov	r2, #131072
 2168 0026 024B     		ldr	r3, .L154
 2169 0028 5A61     		str	r2, [r3, #20]
1200:./Drivers/STM32F1xx_HAL_Driver/Src/stm32f1xx_hal_rtc.c **** }
 2170              		.loc 1 1200 0
 2171 002a 0123     		movs	r3, #1
 2172 002c 6374     		strb	r3, [r4, #17]
 2173 002e 10BD     		pop	{r4, pc}
 2174              	.LVL262:
 2175              	.L155:
 2176              		.align	2
 2177              	.L154:
 2178 0030 00040140 		.word	1073808384
 2179              		.cfi_endproc
 2180              	.LFE76:
 2182              		.section	.text.HAL_RTC_PollForAlarmAEvent,"ax",%progbits
 2183              		.align	2
 2184              		.global	HAL_RTC_PollForAlarmAEvent
 2185              		.thumb
 2186              		.thumb_func
 2188              	HAL_RTC_PollForAlarmAEvent:
 2189              	.LFB78:
1226:./Drivers/STM32F1xx_HAL_Driver/Src/stm32f1xx_hal_rtc.c ****   uint32_t tickstart = HAL_GetTick();   
 2190              		.loc 1 1226 0
 2191              		.cfi_startproc
 2192              		@ args = 0, pretend = 0, frame = 0
 2193              		@ frame_needed = 0, uses_anonymous_args = 0
 2194              	.LVL263:
 2195 0000 70B5     		push	{r4, r5, r6, lr}
 2196              	.LCFI32:
 2197              		.cfi_def_cfa_offset 16
 2198              		.cfi_offset 4, -16
 2199              		.cfi_offset 5, -12
 2200              		.cfi_offset 6, -8
 2201              		.cfi_offset 14, -4
 2202 0002 0446     		mov	r4, r0
 2203 0004 0D46     		mov	r5, r1
1227:./Drivers/STM32F1xx_HAL_Driver/Src/stm32f1xx_hal_rtc.c ****   
 2204              		.loc 1 1227 0
 2205 0006 FFF7FEFF 		bl	HAL_GetTick
 2206              	.LVL264:
 2207 000a 0646     		mov	r6, r0
 2208              	.LVL265:
1230:./Drivers/STM32F1xx_HAL_Driver/Src/stm32f1xx_hal_rtc.c ****   {
 2209              		.loc 1 1230 0
 2210 000c 64B9     		cbnz	r4, .L159
 2211 000e 17E0     		b	.L162
 2212              	.LVL266:
 2213              	.L161:
ARM GAS  /tmp/ccTzASZE.s 			page 75


1237:./Drivers/STM32F1xx_HAL_Driver/Src/stm32f1xx_hal_rtc.c ****     {
 2214              		.loc 1 1237 0
 2215 0010 B5F1FF3F 		cmp	r5, #-1
 2216 0014 08D0     		beq	.L159
1239:./Drivers/STM32F1xx_HAL_Driver/Src/stm32f1xx_hal_rtc.c ****       {
 2217              		.loc 1 1239 0
 2218 0016 25B1     		cbz	r5, .L160
1239:./Drivers/STM32F1xx_HAL_Driver/Src/stm32f1xx_hal_rtc.c ****       {
 2219              		.loc 1 1239 0 is_stmt 0 discriminator 1
 2220 0018 FFF7FEFF 		bl	HAL_GetTick
 2221              	.LVL267:
 2222 001c 801B     		subs	r0, r0, r6
 2223 001e 8542     		cmp	r5, r0
 2224 0020 02D2     		bcs	.L159
 2225              	.L160:
1241:./Drivers/STM32F1xx_HAL_Driver/Src/stm32f1xx_hal_rtc.c ****         return HAL_TIMEOUT;
 2226              		.loc 1 1241 0 is_stmt 1
 2227 0022 0320     		movs	r0, #3
 2228 0024 6074     		strb	r0, [r4, #17]
1242:./Drivers/STM32F1xx_HAL_Driver/Src/stm32f1xx_hal_rtc.c ****       }
 2229              		.loc 1 1242 0
 2230 0026 70BD     		pop	{r4, r5, r6, pc}
 2231              	.LVL268:
 2232              	.L159:
1235:./Drivers/STM32F1xx_HAL_Driver/Src/stm32f1xx_hal_rtc.c ****   {
 2233              		.loc 1 1235 0
 2234 0028 2368     		ldr	r3, [r4]
 2235 002a 5A68     		ldr	r2, [r3, #4]
 2236 002c 12F0020F 		tst	r2, #2
 2237 0030 EED0     		beq	.L161
1248:./Drivers/STM32F1xx_HAL_Driver/Src/stm32f1xx_hal_rtc.c ****   
 2238              		.loc 1 1248 0
 2239 0032 6FF00202 		mvn	r2, #2
 2240 0036 5A60     		str	r2, [r3, #4]
1251:./Drivers/STM32F1xx_HAL_Driver/Src/stm32f1xx_hal_rtc.c ****   
 2241              		.loc 1 1251 0
 2242 0038 0123     		movs	r3, #1
 2243 003a 6374     		strb	r3, [r4, #17]
1253:./Drivers/STM32F1xx_HAL_Driver/Src/stm32f1xx_hal_rtc.c **** }
 2244              		.loc 1 1253 0
 2245 003c 0020     		movs	r0, #0
 2246 003e 70BD     		pop	{r4, r5, r6, pc}
 2247              	.LVL269:
 2248              	.L162:
1232:./Drivers/STM32F1xx_HAL_Driver/Src/stm32f1xx_hal_rtc.c ****   }
 2249              		.loc 1 1232 0
 2250 0040 0120     		movs	r0, #1
 2251              	.LVL270:
1254:./Drivers/STM32F1xx_HAL_Driver/Src/stm32f1xx_hal_rtc.c **** 
 2252              		.loc 1 1254 0
 2253 0042 70BD     		pop	{r4, r5, r6, pc}
 2254              		.cfi_endproc
 2255              	.LFE78:
 2257              		.section	.text.HAL_RTC_GetState,"ax",%progbits
 2258              		.align	2
 2259              		.global	HAL_RTC_GetState
 2260              		.thumb
ARM GAS  /tmp/ccTzASZE.s 			page 76


 2261              		.thumb_func
 2263              	HAL_RTC_GetState:
 2264              	.LFB79:
1281:./Drivers/STM32F1xx_HAL_Driver/Src/stm32f1xx_hal_rtc.c ****   return hrtc->State;
 2265              		.loc 1 1281 0
 2266              		.cfi_startproc
 2267              		@ args = 0, pretend = 0, frame = 0
 2268              		@ frame_needed = 0, uses_anonymous_args = 0
 2269              		@ link register save eliminated.
 2270              	.LVL271:
1282:./Drivers/STM32F1xx_HAL_Driver/Src/stm32f1xx_hal_rtc.c **** }
 2271              		.loc 1 1282 0
 2272 0000 407C     		ldrb	r0, [r0, #17]	@ zero_extendqisi2
 2273              	.LVL272:
1283:./Drivers/STM32F1xx_HAL_Driver/Src/stm32f1xx_hal_rtc.c **** 
 2274              		.loc 1 1283 0
 2275 0002 7047     		bx	lr
 2276              		.cfi_endproc
 2277              	.LFE79:
 2279              		.section	.text.HAL_RTC_WaitForSynchro,"ax",%progbits
 2280              		.align	2
 2281              		.global	HAL_RTC_WaitForSynchro
 2282              		.thumb
 2283              		.thumb_func
 2285              	HAL_RTC_WaitForSynchro:
 2286              	.LFB80:
1314:./Drivers/STM32F1xx_HAL_Driver/Src/stm32f1xx_hal_rtc.c ****   uint32_t tickstart = 0U;
 2287              		.loc 1 1314 0
 2288              		.cfi_startproc
 2289              		@ args = 0, pretend = 0, frame = 0
 2290              		@ frame_needed = 0, uses_anonymous_args = 0
 2291              	.LVL273:
1318:./Drivers/STM32F1xx_HAL_Driver/Src/stm32f1xx_hal_rtc.c ****   {
 2292              		.loc 1 1318 0
 2293 0000 B8B1     		cbz	r0, .L169
1314:./Drivers/STM32F1xx_HAL_Driver/Src/stm32f1xx_hal_rtc.c ****   uint32_t tickstart = 0U;
 2294              		.loc 1 1314 0
 2295 0002 38B5     		push	{r3, r4, r5, lr}
 2296              	.LCFI33:
 2297              		.cfi_def_cfa_offset 16
 2298              		.cfi_offset 3, -16
 2299              		.cfi_offset 4, -12
 2300              		.cfi_offset 5, -8
 2301              		.cfi_offset 14, -4
 2302 0004 0446     		mov	r4, r0
1324:./Drivers/STM32F1xx_HAL_Driver/Src/stm32f1xx_hal_rtc.c ****   
 2303              		.loc 1 1324 0
 2304 0006 0268     		ldr	r2, [r0]
 2305 0008 5368     		ldr	r3, [r2, #4]
 2306 000a 23F00803 		bic	r3, r3, #8
 2307 000e 5360     		str	r3, [r2, #4]
1326:./Drivers/STM32F1xx_HAL_Driver/Src/stm32f1xx_hal_rtc.c ****   
 2308              		.loc 1 1326 0
 2309 0010 FFF7FEFF 		bl	HAL_GetTick
 2310              	.LVL274:
 2311 0014 0546     		mov	r5, r0
 2312              	.LVL275:
ARM GAS  /tmp/ccTzASZE.s 			page 77


1329:./Drivers/STM32F1xx_HAL_Driver/Src/stm32f1xx_hal_rtc.c ****   {
 2313              		.loc 1 1329 0
 2314 0016 05E0     		b	.L167
 2315              	.LVL276:
 2316              	.L168:
1331:./Drivers/STM32F1xx_HAL_Driver/Src/stm32f1xx_hal_rtc.c ****     {       
 2317              		.loc 1 1331 0
 2318 0018 FFF7FEFF 		bl	HAL_GetTick
 2319              	.LVL277:
 2320 001c 401B     		subs	r0, r0, r5
 2321 001e B0F57A7F 		cmp	r0, #1000
 2322 0022 08D8     		bhi	.L170
 2323              	.L167:
1329:./Drivers/STM32F1xx_HAL_Driver/Src/stm32f1xx_hal_rtc.c ****   {
 2324              		.loc 1 1329 0
 2325 0024 2368     		ldr	r3, [r4]
 2326 0026 5B68     		ldr	r3, [r3, #4]
 2327 0028 13F0080F 		tst	r3, #8
 2328 002c F4D0     		beq	.L168
1337:./Drivers/STM32F1xx_HAL_Driver/Src/stm32f1xx_hal_rtc.c **** }
 2329              		.loc 1 1337 0
 2330 002e 0020     		movs	r0, #0
 2331 0030 38BD     		pop	{r3, r4, r5, pc}
 2332              	.LVL278:
 2333              	.L169:
 2334              	.LCFI34:
 2335              		.cfi_def_cfa_offset 0
 2336              		.cfi_restore 3
 2337              		.cfi_restore 4
 2338              		.cfi_restore 5
 2339              		.cfi_restore 14
1320:./Drivers/STM32F1xx_HAL_Driver/Src/stm32f1xx_hal_rtc.c ****   }
 2340              		.loc 1 1320 0
 2341 0032 0120     		movs	r0, #1
 2342              	.LVL279:
1338:./Drivers/STM32F1xx_HAL_Driver/Src/stm32f1xx_hal_rtc.c **** 
 2343              		.loc 1 1338 0
 2344 0034 7047     		bx	lr
 2345              	.LVL280:
 2346              	.L170:
 2347              	.LCFI35:
 2348              		.cfi_def_cfa_offset 16
 2349              		.cfi_offset 3, -16
 2350              		.cfi_offset 4, -12
 2351              		.cfi_offset 5, -8
 2352              		.cfi_offset 14, -4
1333:./Drivers/STM32F1xx_HAL_Driver/Src/stm32f1xx_hal_rtc.c ****     } 
 2353              		.loc 1 1333 0
 2354 0036 0320     		movs	r0, #3
1338:./Drivers/STM32F1xx_HAL_Driver/Src/stm32f1xx_hal_rtc.c **** 
 2355              		.loc 1 1338 0
 2356 0038 38BD     		pop	{r3, r4, r5, pc}
 2357              		.cfi_endproc
 2358              	.LFE80:
 2360 003a 00BF     		.section	.text.HAL_RTC_Init,"ax",%progbits
 2361              		.align	2
 2362              		.global	HAL_RTC_Init
ARM GAS  /tmp/ccTzASZE.s 			page 78


 2363              		.thumb
 2364              		.thumb_func
 2366              	HAL_RTC_Init:
 2367              	.LFB64:
 245:./Drivers/STM32F1xx_HAL_Driver/Src/stm32f1xx_hal_rtc.c ****   uint32_t prescaler = 0U;
 2368              		.loc 1 245 0
 2369              		.cfi_startproc
 2370              		@ args = 0, pretend = 0, frame = 0
 2371              		@ frame_needed = 0, uses_anonymous_args = 0
 2372              	.LVL281:
 248:./Drivers/STM32F1xx_HAL_Driver/Src/stm32f1xx_hal_rtc.c ****   {
 2373              		.loc 1 248 0
 2374 0000 0028     		cmp	r0, #0
 2375 0002 59D0     		beq	.L181
 245:./Drivers/STM32F1xx_HAL_Driver/Src/stm32f1xx_hal_rtc.c ****   uint32_t prescaler = 0U;
 2376              		.loc 1 245 0
 2377 0004 10B5     		push	{r4, lr}
 2378              	.LCFI36:
 2379              		.cfi_def_cfa_offset 8
 2380              		.cfi_offset 4, -8
 2381              		.cfi_offset 14, -4
 2382 0006 0446     		mov	r4, r0
 258:./Drivers/STM32F1xx_HAL_Driver/Src/stm32f1xx_hal_rtc.c ****   {
 2383              		.loc 1 258 0
 2384 0008 437C     		ldrb	r3, [r0, #17]	@ zero_extendqisi2
 2385 000a 13F0FF0F 		tst	r3, #255
 2386 000e 03D1     		bne	.L174
 261:./Drivers/STM32F1xx_HAL_Driver/Src/stm32f1xx_hal_rtc.c ****     
 2387              		.loc 1 261 0
 2388 0010 0023     		movs	r3, #0
 2389 0012 0374     		strb	r3, [r0, #16]
 264:./Drivers/STM32F1xx_HAL_Driver/Src/stm32f1xx_hal_rtc.c ****   }
 2390              		.loc 1 264 0
 2391 0014 FFF7FEFF 		bl	HAL_RTC_MspInit
 2392              	.LVL282:
 2393              	.L174:
 268:./Drivers/STM32F1xx_HAL_Driver/Src/stm32f1xx_hal_rtc.c ****        
 2394              		.loc 1 268 0
 2395 0018 0223     		movs	r3, #2
 2396 001a 6374     		strb	r3, [r4, #17]
 271:./Drivers/STM32F1xx_HAL_Driver/Src/stm32f1xx_hal_rtc.c ****   {
 2397              		.loc 1 271 0
 2398 001c 2046     		mov	r0, r4
 2399 001e FFF7FEFF 		bl	HAL_RTC_WaitForSynchro
 2400              	.LVL283:
 2401 0022 18B1     		cbz	r0, .L175
 274:./Drivers/STM32F1xx_HAL_Driver/Src/stm32f1xx_hal_rtc.c ****     
 2402              		.loc 1 274 0
 2403 0024 0423     		movs	r3, #4
 2404 0026 6374     		strb	r3, [r4, #17]
 276:./Drivers/STM32F1xx_HAL_Driver/Src/stm32f1xx_hal_rtc.c ****   } 
 2405              		.loc 1 276 0
 2406 0028 0123     		movs	r3, #1
 2407 002a 48E0     		b	.L173
 2408              	.L175:
 280:./Drivers/STM32F1xx_HAL_Driver/Src/stm32f1xx_hal_rtc.c ****   {
 2409              		.loc 1 280 0
ARM GAS  /tmp/ccTzASZE.s 			page 79


 2410 002c 2046     		mov	r0, r4
 2411 002e FFF7FEFF 		bl	RTC_EnterInitMode
 2412              	.LVL284:
 2413 0032 18B1     		cbz	r0, .L176
 283:./Drivers/STM32F1xx_HAL_Driver/Src/stm32f1xx_hal_rtc.c ****     
 2414              		.loc 1 283 0
 2415 0034 0423     		movs	r3, #4
 2416 0036 6374     		strb	r3, [r4, #17]
 285:./Drivers/STM32F1xx_HAL_Driver/Src/stm32f1xx_hal_rtc.c ****   } 
 2417              		.loc 1 285 0
 2418 0038 0123     		movs	r3, #1
 2419 003a 40E0     		b	.L173
 2420              	.L176:
 290:./Drivers/STM32F1xx_HAL_Driver/Src/stm32f1xx_hal_rtc.c ****     
 2421              		.loc 1 290 0
 2422 003c 2268     		ldr	r2, [r4]
 2423 003e 5368     		ldr	r3, [r2, #4]
 2424 0040 23F00703 		bic	r3, r3, #7
 2425 0044 5360     		str	r3, [r2, #4]
 292:./Drivers/STM32F1xx_HAL_Driver/Src/stm32f1xx_hal_rtc.c ****     {
 2426              		.loc 1 292 0
 2427 0046 A368     		ldr	r3, [r4, #8]
 2428 0048 23B1     		cbz	r3, .L177
 295:./Drivers/STM32F1xx_HAL_Driver/Src/stm32f1xx_hal_rtc.c ****     }
 2429              		.loc 1 295 0
 2430 004a 1E4A     		ldr	r2, .L184
 2431 004c 136B     		ldr	r3, [r2, #48]
 2432 004e 23F00103 		bic	r3, r3, #1
 2433 0052 1363     		str	r3, [r2, #48]
 2434              	.L177:
 299:./Drivers/STM32F1xx_HAL_Driver/Src/stm32f1xx_hal_rtc.c **** 
 2435              		.loc 1 299 0
 2436 0054 1B49     		ldr	r1, .L184
 2437 0056 CB6A     		ldr	r3, [r1, #44]
 2438 0058 23F46072 		bic	r2, r3, #896
 2439 005c A368     		ldr	r3, [r4, #8]
 2440 005e 1343     		orrs	r3, r3, r2
 2441 0060 CB62     		str	r3, [r1, #44]
 301:./Drivers/STM32F1xx_HAL_Driver/Src/stm32f1xx_hal_rtc.c ****     {
 2442              		.loc 1 301 0
 2443 0062 6068     		ldr	r0, [r4, #4]
 2444 0064 B0F1FF3F 		cmp	r0, #-1
 2445 0068 08D1     		bne	.L178
 310:./Drivers/STM32F1xx_HAL_Driver/Src/stm32f1xx_hal_rtc.c **** 
 2446              		.loc 1 310 0
 2447 006a 0120     		movs	r0, #1
 2448 006c FFF7FEFF 		bl	HAL_RCCEx_GetPeriphCLKFreq
 2449              	.LVL285:
 313:./Drivers/STM32F1xx_HAL_Driver/Src/stm32f1xx_hal_rtc.c ****       {
 2450              		.loc 1 313 0
 2451 0070 18B9     		cbnz	r0, .L179
 316:./Drivers/STM32F1xx_HAL_Driver/Src/stm32f1xx_hal_rtc.c ****         return HAL_ERROR;
 2452              		.loc 1 316 0
 2453 0072 0423     		movs	r3, #4
 2454 0074 6374     		strb	r3, [r4, #17]
 317:./Drivers/STM32F1xx_HAL_Driver/Src/stm32f1xx_hal_rtc.c ****       }
 2455              		.loc 1 317 0
ARM GAS  /tmp/ccTzASZE.s 			page 80


 2456 0076 0123     		movs	r3, #1
 2457 0078 21E0     		b	.L173
 2458              	.L179:
 322:./Drivers/STM32F1xx_HAL_Driver/Src/stm32f1xx_hal_rtc.c ****       }
 2459              		.loc 1 322 0
 2460 007a 0138     		subs	r0, r0, #1
 2461              	.LVL286:
 2462              	.L178:
 327:./Drivers/STM32F1xx_HAL_Driver/Src/stm32f1xx_hal_rtc.c ****     MODIFY_REG(hrtc->Instance->PRLL, RTC_PRLL_PRL, (prescaler & RTC_PRLL_PRL));
 2463              		.loc 1 327 0
 2464 007c 2268     		ldr	r2, [r4]
 2465 007e 9368     		ldr	r3, [r2, #8]
 2466 0080 23F00F03 		bic	r3, r3, #15
 2467 0084 43EA1043 		orr	r3, r3, r0, lsr #16
 2468 0088 9360     		str	r3, [r2, #8]
 328:./Drivers/STM32F1xx_HAL_Driver/Src/stm32f1xx_hal_rtc.c ****       
 2469              		.loc 1 328 0
 2470 008a 2268     		ldr	r2, [r4]
 2471 008c D368     		ldr	r3, [r2, #12]
 2472 008e 1B0C     		lsrs	r3, r3, #16
 2473 0090 1B04     		lsls	r3, r3, #16
 2474 0092 80B2     		uxth	r0, r0
 2475              	.LVL287:
 2476 0094 1843     		orrs	r0, r0, r3
 2477 0096 D060     		str	r0, [r2, #12]
 331:./Drivers/STM32F1xx_HAL_Driver/Src/stm32f1xx_hal_rtc.c ****     {       
 2478              		.loc 1 331 0
 2479 0098 2046     		mov	r0, r4
 2480 009a FFF7FEFF 		bl	RTC_ExitInitMode
 2481              	.LVL288:
 2482 009e 0346     		mov	r3, r0
 2483 00a0 18B1     		cbz	r0, .L180
 333:./Drivers/STM32F1xx_HAL_Driver/Src/stm32f1xx_hal_rtc.c ****       
 2484              		.loc 1 333 0
 2485 00a2 0423     		movs	r3, #4
 2486 00a4 6374     		strb	r3, [r4, #17]
 335:./Drivers/STM32F1xx_HAL_Driver/Src/stm32f1xx_hal_rtc.c ****     }
 2487              		.loc 1 335 0
 2488 00a6 0123     		movs	r3, #1
 2489 00a8 09E0     		b	.L173
 2490              	.L180:
 339:./Drivers/STM32F1xx_HAL_Driver/Src/stm32f1xx_hal_rtc.c ****     hrtc->DateToUpdate.Month = RTC_MONTH_JANUARY;
 2491              		.loc 1 339 0
 2492 00aa 0022     		movs	r2, #0
 2493 00ac E273     		strb	r2, [r4, #15]
 340:./Drivers/STM32F1xx_HAL_Driver/Src/stm32f1xx_hal_rtc.c ****     hrtc->DateToUpdate.Date = 0x01U;
 2494              		.loc 1 340 0
 2495 00ae 0122     		movs	r2, #1
 2496 00b0 6273     		strb	r2, [r4, #13]
 341:./Drivers/STM32F1xx_HAL_Driver/Src/stm32f1xx_hal_rtc.c **** 
 2497              		.loc 1 341 0
 2498 00b2 A273     		strb	r2, [r4, #14]
 344:./Drivers/STM32F1xx_HAL_Driver/Src/stm32f1xx_hal_rtc.c ****     
 2499              		.loc 1 344 0
 2500 00b4 6274     		strb	r2, [r4, #17]
 346:./Drivers/STM32F1xx_HAL_Driver/Src/stm32f1xx_hal_rtc.c ****   }
 2501              		.loc 1 346 0
ARM GAS  /tmp/ccTzASZE.s 			page 81


 2502 00b6 02E0     		b	.L173
 2503              	.LVL289:
 2504              	.L181:
 2505              	.LCFI37:
 2506              		.cfi_def_cfa_offset 0
 2507              		.cfi_restore 4
 2508              		.cfi_restore 14
 250:./Drivers/STM32F1xx_HAL_Driver/Src/stm32f1xx_hal_rtc.c ****   }
 2509              		.loc 1 250 0
 2510 00b8 0123     		movs	r3, #1
 348:./Drivers/STM32F1xx_HAL_Driver/Src/stm32f1xx_hal_rtc.c **** 
 2511              		.loc 1 348 0
 2512 00ba 1846     		mov	r0, r3
 2513              	.LVL290:
 2514 00bc 7047     		bx	lr
 2515              	.LVL291:
 2516              	.L173:
 2517              	.LCFI38:
 2518              		.cfi_def_cfa_offset 8
 2519              		.cfi_offset 4, -8
 2520              		.cfi_offset 14, -4
 2521 00be 1846     		mov	r0, r3
 2522 00c0 10BD     		pop	{r4, pc}
 2523              	.LVL292:
 2524              	.L185:
 2525 00c2 00BF     		.align	2
 2526              	.L184:
 2527 00c4 006C0040 		.word	1073769472
 2528              		.cfi_endproc
 2529              	.LFE64:
 2531              		.section	.text.HAL_RTC_DeInit,"ax",%progbits
 2532              		.align	2
 2533              		.global	HAL_RTC_DeInit
 2534              		.thumb
 2535              		.thumb_func
 2537              	HAL_RTC_DeInit:
 2538              	.LFB65:
 358:./Drivers/STM32F1xx_HAL_Driver/Src/stm32f1xx_hal_rtc.c ****   /* Check input parameters */
 2539              		.loc 1 358 0
 2540              		.cfi_startproc
 2541              		@ args = 0, pretend = 0, frame = 0
 2542              		@ frame_needed = 0, uses_anonymous_args = 0
 2543              	.LVL293:
 2544 0000 38B5     		push	{r3, r4, r5, lr}
 2545              	.LCFI39:
 2546              		.cfi_def_cfa_offset 16
 2547              		.cfi_offset 3, -16
 2548              		.cfi_offset 4, -12
 2549              		.cfi_offset 5, -8
 2550              		.cfi_offset 14, -4
 360:./Drivers/STM32F1xx_HAL_Driver/Src/stm32f1xx_hal_rtc.c ****   {
 2551              		.loc 1 360 0
 2552 0002 0028     		cmp	r0, #0
 2553 0004 34D0     		beq	.L190
 2554 0006 0446     		mov	r4, r0
 369:./Drivers/STM32F1xx_HAL_Driver/Src/stm32f1xx_hal_rtc.c ****   
 2555              		.loc 1 369 0
ARM GAS  /tmp/ccTzASZE.s 			page 82


 2556 0008 0223     		movs	r3, #2
 2557 000a 4374     		strb	r3, [r0, #17]
 372:./Drivers/STM32F1xx_HAL_Driver/Src/stm32f1xx_hal_rtc.c ****   {
 2558              		.loc 1 372 0
 2559 000c FFF7FEFF 		bl	RTC_EnterInitMode
 2560              	.LVL294:
 2561 0010 28B1     		cbz	r0, .L188
 375:./Drivers/STM32F1xx_HAL_Driver/Src/stm32f1xx_hal_rtc.c ****     
 2562              		.loc 1 375 0
 2563 0012 0423     		movs	r3, #4
 2564 0014 6374     		strb	r3, [r4, #17]
 378:./Drivers/STM32F1xx_HAL_Driver/Src/stm32f1xx_hal_rtc.c **** 
 2565              		.loc 1 378 0
 2566 0016 0023     		movs	r3, #0
 2567 0018 2374     		strb	r3, [r4, #16]
 380:./Drivers/STM32F1xx_HAL_Driver/Src/stm32f1xx_hal_rtc.c ****   }  
 2568              		.loc 1 380 0
 2569 001a 0125     		movs	r5, #1
 2570 001c 29E0     		b	.L187
 2571              	.L188:
 384:./Drivers/STM32F1xx_HAL_Driver/Src/stm32f1xx_hal_rtc.c ****     CLEAR_REG(hrtc->Instance->CNTH);
 2572              		.loc 1 384 0
 2573 001e 2268     		ldr	r2, [r4]
 2574 0020 0023     		movs	r3, #0
 2575 0022 D361     		str	r3, [r2, #28]
 385:./Drivers/STM32F1xx_HAL_Driver/Src/stm32f1xx_hal_rtc.c ****     WRITE_REG(hrtc->Instance->PRLL, 0x00008000U);
 2576              		.loc 1 385 0
 2577 0024 2268     		ldr	r2, [r4]
 2578 0026 9361     		str	r3, [r2, #24]
 386:./Drivers/STM32F1xx_HAL_Driver/Src/stm32f1xx_hal_rtc.c ****     CLEAR_REG(hrtc->Instance->PRLH);
 2579              		.loc 1 386 0
 2580 0028 2268     		ldr	r2, [r4]
 2581 002a 4FF40041 		mov	r1, #32768
 2582 002e D160     		str	r1, [r2, #12]
 387:./Drivers/STM32F1xx_HAL_Driver/Src/stm32f1xx_hal_rtc.c **** 
 2583              		.loc 1 387 0
 2584 0030 2268     		ldr	r2, [r4]
 2585 0032 9360     		str	r3, [r2, #8]
 390:./Drivers/STM32F1xx_HAL_Driver/Src/stm32f1xx_hal_rtc.c ****     CLEAR_REG(hrtc->Instance->CRL);
 2586              		.loc 1 390 0
 2587 0034 2268     		ldr	r2, [r4]
 2588 0036 1360     		str	r3, [r2]
 391:./Drivers/STM32F1xx_HAL_Driver/Src/stm32f1xx_hal_rtc.c ****     
 2589              		.loc 1 391 0
 2590 0038 2268     		ldr	r2, [r4]
 2591 003a 5360     		str	r3, [r2, #4]
 393:./Drivers/STM32F1xx_HAL_Driver/Src/stm32f1xx_hal_rtc.c ****     {       
 2592              		.loc 1 393 0
 2593 003c 2046     		mov	r0, r4
 2594 003e FFF7FEFF 		bl	RTC_ExitInitMode
 2595              	.LVL295:
 2596 0042 0546     		mov	r5, r0
 2597 0044 28B1     		cbz	r0, .L189
 395:./Drivers/STM32F1xx_HAL_Driver/Src/stm32f1xx_hal_rtc.c ****       
 2598              		.loc 1 395 0
 2599 0046 0423     		movs	r3, #4
 2600 0048 6374     		strb	r3, [r4, #17]
ARM GAS  /tmp/ccTzASZE.s 			page 83


 398:./Drivers/STM32F1xx_HAL_Driver/Src/stm32f1xx_hal_rtc.c ****       
 2601              		.loc 1 398 0
 2602 004a 0023     		movs	r3, #0
 2603 004c 2374     		strb	r3, [r4, #16]
 400:./Drivers/STM32F1xx_HAL_Driver/Src/stm32f1xx_hal_rtc.c ****     }
 2604              		.loc 1 400 0
 2605 004e 0125     		movs	r5, #1
 2606 0050 0FE0     		b	.L187
 2607              	.L189:
 405:./Drivers/STM32F1xx_HAL_Driver/Src/stm32f1xx_hal_rtc.c **** 
 2608              		.loc 1 405 0
 2609 0052 2046     		mov	r0, r4
 2610 0054 FFF7FEFF 		bl	HAL_RTC_WaitForSynchro
 2611              	.LVL296:
 408:./Drivers/STM32F1xx_HAL_Driver/Src/stm32f1xx_hal_rtc.c ****     
 2612              		.loc 1 408 0
 2613 0058 2268     		ldr	r2, [r4]
 2614 005a 5368     		ldr	r3, [r2, #4]
 2615 005c 23F00803 		bic	r3, r3, #8
 2616 0060 5360     		str	r3, [r2, #4]
 411:./Drivers/STM32F1xx_HAL_Driver/Src/stm32f1xx_hal_rtc.c **** 
 2617              		.loc 1 411 0
 2618 0062 2046     		mov	r0, r4
 2619 0064 FFF7FEFF 		bl	HAL_RTC_MspDeInit
 2620              	.LVL297:
 413:./Drivers/STM32F1xx_HAL_Driver/Src/stm32f1xx_hal_rtc.c ****   
 2621              		.loc 1 413 0
 2622 0068 0023     		movs	r3, #0
 2623 006a 6374     		strb	r3, [r4, #17]
 416:./Drivers/STM32F1xx_HAL_Driver/Src/stm32f1xx_hal_rtc.c **** 
 2624              		.loc 1 416 0
 2625 006c 2374     		strb	r3, [r4, #16]
 418:./Drivers/STM32F1xx_HAL_Driver/Src/stm32f1xx_hal_rtc.c **** }
 2626              		.loc 1 418 0
 2627 006e 00E0     		b	.L187
 2628              	.LVL298:
 2629              	.L190:
 362:./Drivers/STM32F1xx_HAL_Driver/Src/stm32f1xx_hal_rtc.c ****   }
 2630              		.loc 1 362 0
 2631 0070 0125     		movs	r5, #1
 2632              	.LVL299:
 2633              	.L187:
 419:./Drivers/STM32F1xx_HAL_Driver/Src/stm32f1xx_hal_rtc.c **** 
 2634              		.loc 1 419 0
 2635 0072 2846     		mov	r0, r5
 2636 0074 38BD     		pop	{r3, r4, r5, pc}
 2637              		.cfi_endproc
 2638              	.LFE65:
 2640 0076 00BF     		.text
 2641              	.Letext0:
 2642              		.file 2 "/opt/toolchain/gcc-arm-none-eabi-5_4-2016q3/arm-none-eabi/include/machine/_default_types.
 2643              		.file 3 "/opt/toolchain/gcc-arm-none-eabi-5_4-2016q3/arm-none-eabi/include/sys/_stdint.h"
 2644              		.file 4 "Drivers/CMSIS/Device/Inc/stm32f103xb.h"
 2645              		.file 5 "Drivers/CMSIS/Device/Inc/stm32f1xx.h"
 2646              		.file 6 "Drivers/STM32F1xx_HAL_Driver/Inc/stm32f1xx_hal_def.h"
 2647              		.file 7 "Drivers/STM32F1xx_HAL_Driver/Inc/stm32f1xx_hal_rtc.h"
 2648              		.file 8 "Drivers/STM32F1xx_HAL_Driver/Inc/stm32f1xx_hal.h"
ARM GAS  /tmp/ccTzASZE.s 			page 84


 2649              		.file 9 "Drivers/STM32F1xx_HAL_Driver/Inc/stm32f1xx_hal_rcc_ex.h"
 2650              		.file 10 "Drivers/CMSIS/Inc/core_cm3.h"
ARM GAS  /tmp/ccTzASZE.s 			page 85


DEFINED SYMBOLS
                            *ABS*:00000000 stm32f1xx_hal_rtc.c
     /tmp/ccTzASZE.s:20     .text.RTC_ReadTimeCounter:00000000 $t
     /tmp/ccTzASZE.s:24     .text.RTC_ReadTimeCounter:00000000 RTC_ReadTimeCounter
     /tmp/ccTzASZE.s:81     .text.RTC_ReadAlarmCounter:00000000 $t
     /tmp/ccTzASZE.s:85     .text.RTC_ReadAlarmCounter:00000000 RTC_ReadAlarmCounter
     /tmp/ccTzASZE.s:110    .text.RTC_ByteToBcd2:00000000 $t
     /tmp/ccTzASZE.s:114    .text.RTC_ByteToBcd2:00000000 RTC_ByteToBcd2
     /tmp/ccTzASZE.s:152    .text.RTC_Bcd2ToByte:00000000 $t
     /tmp/ccTzASZE.s:156    .text.RTC_Bcd2ToByte:00000000 RTC_Bcd2ToByte
     /tmp/ccTzASZE.s:180    .text.RTC_IsLeapYear:00000000 $t
     /tmp/ccTzASZE.s:184    .text.RTC_IsLeapYear:00000000 RTC_IsLeapYear
     /tmp/ccTzASZE.s:235    .text.RTC_IsLeapYear:0000003c $d
     /tmp/ccTzASZE.s:240    .text.RTC_WeekDayNum:00000000 $t
     /tmp/ccTzASZE.s:244    .text.RTC_WeekDayNum:00000000 RTC_WeekDayNum
     /tmp/ccTzASZE.s:329    .text.RTC_WeekDayNum:00000090 $d
     /tmp/ccTzASZE.s:336    .text.RTC_DateUpdate:00000000 $t
     /tmp/ccTzASZE.s:340    .text.RTC_DateUpdate:00000000 RTC_DateUpdate
     /tmp/ccTzASZE.s:522    .text.RTC_EnterInitMode:00000000 $t
     /tmp/ccTzASZE.s:526    .text.RTC_EnterInitMode:00000000 RTC_EnterInitMode
     /tmp/ccTzASZE.s:580    .text.RTC_ExitInitMode:00000000 $t
     /tmp/ccTzASZE.s:584    .text.RTC_ExitInitMode:00000000 RTC_ExitInitMode
     /tmp/ccTzASZE.s:639    .text.RTC_WriteTimeCounter:00000000 $t
     /tmp/ccTzASZE.s:643    .text.RTC_WriteTimeCounter:00000000 RTC_WriteTimeCounter
     /tmp/ccTzASZE.s:695    .text.RTC_WriteAlarmCounter:00000000 $t
     /tmp/ccTzASZE.s:699    .text.RTC_WriteAlarmCounter:00000000 RTC_WriteAlarmCounter
     /tmp/ccTzASZE.s:751    .text.HAL_RTC_MspInit:00000000 $t
     /tmp/ccTzASZE.s:756    .text.HAL_RTC_MspInit:00000000 HAL_RTC_MspInit
     /tmp/ccTzASZE.s:769    .text.HAL_RTC_MspDeInit:00000000 $t
     /tmp/ccTzASZE.s:774    .text.HAL_RTC_MspDeInit:00000000 HAL_RTC_MspDeInit
     /tmp/ccTzASZE.s:787    .text.HAL_RTC_SetTime:00000000 $t
     /tmp/ccTzASZE.s:792    .text.HAL_RTC_SetTime:00000000 HAL_RTC_SetTime
     /tmp/ccTzASZE.s:950    .text.HAL_RTC_GetTime:00000000 $t
     /tmp/ccTzASZE.s:955    .text.HAL_RTC_GetTime:00000000 HAL_RTC_GetTime
     /tmp/ccTzASZE.s:1177   .text.HAL_RTC_GetTime:00000104 $d
     /tmp/ccTzASZE.s:1186   .text.HAL_RTC_SetDate:00000000 $t
     /tmp/ccTzASZE.s:1191   .text.HAL_RTC_SetDate:00000000 HAL_RTC_SetDate
     /tmp/ccTzASZE.s:1375   .text.HAL_RTC_SetDate:000000cc $d
     /tmp/ccTzASZE.s:1382   .text.HAL_RTC_GetDate:00000000 $t
     /tmp/ccTzASZE.s:1387   .text.HAL_RTC_GetDate:00000000 HAL_RTC_GetDate
     /tmp/ccTzASZE.s:1481   .text.HAL_RTC_SetAlarm:00000000 $t
     /tmp/ccTzASZE.s:1486   .text.HAL_RTC_SetAlarm:00000000 HAL_RTC_SetAlarm
     /tmp/ccTzASZE.s:1661   .text.HAL_RTC_SetAlarm_IT:00000000 $t
     /tmp/ccTzASZE.s:1666   .text.HAL_RTC_SetAlarm_IT:00000000 HAL_RTC_SetAlarm_IT
     /tmp/ccTzASZE.s:1858   .text.HAL_RTC_SetAlarm_IT:000000f8 $d
     /tmp/ccTzASZE.s:1863   .text.HAL_RTC_GetAlarm:00000000 $t
     /tmp/ccTzASZE.s:1868   .text.HAL_RTC_GetAlarm:00000000 HAL_RTC_GetAlarm
     /tmp/ccTzASZE.s:1980   .text.HAL_RTC_GetAlarm:00000074 $d
     /tmp/ccTzASZE.s:1987   .text.HAL_RTC_DeactivateAlarm:00000000 $t
     /tmp/ccTzASZE.s:1992   .text.HAL_RTC_DeactivateAlarm:00000000 HAL_RTC_DeactivateAlarm
     /tmp/ccTzASZE.s:2107   .text.HAL_RTC_DeactivateAlarm:0000007c $d
     /tmp/ccTzASZE.s:2112   .text.HAL_RTC_AlarmAEventCallback:00000000 $t
     /tmp/ccTzASZE.s:2117   .text.HAL_RTC_AlarmAEventCallback:00000000 HAL_RTC_AlarmAEventCallback
     /tmp/ccTzASZE.s:2130   .text.HAL_RTC_AlarmIRQHandler:00000000 $t
     /tmp/ccTzASZE.s:2135   .text.HAL_RTC_AlarmIRQHandler:00000000 HAL_RTC_AlarmIRQHandler
     /tmp/ccTzASZE.s:2178   .text.HAL_RTC_AlarmIRQHandler:00000030 $d
     /tmp/ccTzASZE.s:2183   .text.HAL_RTC_PollForAlarmAEvent:00000000 $t
ARM GAS  /tmp/ccTzASZE.s 			page 86


     /tmp/ccTzASZE.s:2188   .text.HAL_RTC_PollForAlarmAEvent:00000000 HAL_RTC_PollForAlarmAEvent
     /tmp/ccTzASZE.s:2258   .text.HAL_RTC_GetState:00000000 $t
     /tmp/ccTzASZE.s:2263   .text.HAL_RTC_GetState:00000000 HAL_RTC_GetState
     /tmp/ccTzASZE.s:2280   .text.HAL_RTC_WaitForSynchro:00000000 $t
     /tmp/ccTzASZE.s:2285   .text.HAL_RTC_WaitForSynchro:00000000 HAL_RTC_WaitForSynchro
     /tmp/ccTzASZE.s:2361   .text.HAL_RTC_Init:00000000 $t
     /tmp/ccTzASZE.s:2366   .text.HAL_RTC_Init:00000000 HAL_RTC_Init
     /tmp/ccTzASZE.s:2527   .text.HAL_RTC_Init:000000c4 $d
     /tmp/ccTzASZE.s:2532   .text.HAL_RTC_DeInit:00000000 $t
     /tmp/ccTzASZE.s:2537   .text.HAL_RTC_DeInit:00000000 HAL_RTC_DeInit
                     .debug_frame:00000010 $d

UNDEFINED SYMBOLS
HAL_GetTick
HAL_RCCEx_GetPeriphCLKFreq
